Certificate:
    Data:
        Version: 1 (0x0)
        Serial Number: 1 (0x1)
    Signature Algorithm: sha256WithRSAEncryption
        Issuer: C=US, ST=MO, L=Saint Louis, O=Object Computing (Security Attributes Identity CA), CN=Object Computing (Security Attributes Identity CA)/emailAddress=info@objectcomputing.com
        Validity
            Not Before: Apr 25 19:09:05 2018 GMT
            Not After : Apr 22 19:09:05 2028 GMT
        Subject: C=AU, ST=Some-State, O=Internet Widgits Pty Ltd, CN=Ozzie Ozmann
        Subject Public Key Info:
            Public Key Algorithm: rsaEncryption
                Public-Key: (2048 bit)
                Modulus:
                    00:c6:8d:ea:23:2d:09:48:2f:43:9a:57:a7:41:53:
                    17:75:cb:2d:af:07:d5:9a:27:64:8c:f1:fa:2c:d7:
                    4c:97:12:f7:20:21:d1:04:a1:ab:21:88:7f:67:ae:
                    e8:d0:e1:0c:41:ee:21:9c:2a:21:e1:81:fc:23:fc:
                    98:f5:20:15:ce:d4:54:52:f8:fd:9f:9f:b8:d6:b3:
                    f0:ed:ae:12:d7:c7:88:a9:d1:87:f1:03:12:8a:e1:
                    88:3c:25:e6:fd:0a:f3:59:a9:6d:a7:f8:2e:1f:29:
                    4f:22:bb:aa:a7:ad:24:9c:70:b7:2f:76:f9:f0:c3:
                    75:0e:2f:1e:7f:24:84:a1:ad:33:15:76:c0:73:51:
                    81:86:a9:dc:27:ae:8c:e6:ab:d9:c4:66:5f:23:e2:
                    09:6e:82:77:92:9e:93:13:13:fd:d5:28:d7:01:bc:
                    39:a0:85:f5:d4:73:92:2a:8f:06:82:12:fc:ea:b9:
                    5e:3f:95:24:d1:a3:e3:1a:a6:8f:52:c1:9b:d1:76:
                    01:bb:a3:ad:72:b1:77:02:d4:ed:b9:13:57:e3:90:
                    32:4d:cf:9c:70:ae:bb:d4:7e:e7:dc:8d:7e:ce:93:
                    5d:15:dd:65:9c:dd:0b:6b:21:3a:64:8a:fe:5e:63:
                    02:57:99:2b:e5:a9:e5:f2:a8:bb:19:b5:97:67:f1:
                    e4:17
                Exponent: 65537 (0x10001)
    Signature Algorithm: sha256WithRSAEncryption
         06:26:8c:38:59:09:7b:32:22:63:78:42:3c:43:d1:ba:30:a3:
         66:60:2a:81:c0:ff:c2:d4:9f:aa:c0:ba:0b:6a:88:2d:2d:26:
         be:df:ee:7c:73:3c:3e:e9:2f:b2:7a:95:db:b0:7a:a1:ec:12:
         9e:7b:0e:1f:77:a9:11:f0:9a:a5:88:8d:4f:0b:7c:bd:0d:91:
         36:74:af:3f:7e:6c:cc:64:a2:bb:b0:3a:2c:44:ff:a9:1b:d6:
         4d:cf:d4:b4:22:1e:54:9f:53:80:df:ba:36:88:85:3b:d2:eb:
         11:e5:ff:aa:cd:ae:cf:88:dc:15:d4:50:d1:04:20:cf:8d:44:
         78:57:c2:4c:2f:e3:65:82:0f:2e:30:c4:f5:bb:9d:52:db:77:
         a9:b3:4d:07:3a:c9:24:8f:25:24:0e:c4:c7:c8:6a:4a:c1:9b:
         1b:14:76:75:9d:8a:fc:fc:ed:dc:69:7a:4a:f7:87:7c:52:25:
         7e:c8:f6:07:f4:07:63:52:c0:2c:e1:d0:5a:35:ad:6d:2b:4b:
         dd:27:4b:ea:7f:b9:11:a0:7a:8f:c3:9d:75:fb:52:b8:5d:3a:
         5c:6b:d7:13:c0:25:5f:7a:1d:21:e2:73:4e:a5:e4:60:c4:42:
         a6:bd:1f:c4:7b:0a:f2:04:32:4f:69:4d:f5:25:07:55:ca:a9:
         44:32:d8:26
-----BEGIN CERTIFICATE-----
MIIDpDCCAowCAQEwDQYJKoZIhvcNAQELBQAwgdMxCzAJBgNVBAYTAlVTMQswCQYD
VQQIDAJNTzEUMBIGA1UEBwwLU2FpbnQgTG91aXMxOzA5BgNVBAoMMk9iamVjdCBD
b21wdXRpbmcgKFNlY3VyaXR5IEF0dHJpYnV0ZXMgSWRlbnRpdHkgQ0EpMTswOQYD
VQQDDDJPYmplY3QgQ29tcHV0aW5nIChTZWN1cml0eSBBdHRyaWJ1dGVzIElkZW50
aXR5IENBKTEnMCUGCSqGSIb3DQEJARYYaW5mb0BvYmplY3Rjb21wdXRpbmcuY29t
MB4XDTE4MDQyNTE5MDkwNVoXDTI4MDQyMjE5MDkwNVowXDELMAkGA1UEBhMCQVUx
EzARBgNVBAgMClNvbWUtU3RhdGUxITAfBgNVBAoMGEludGVybmV0IFdpZGdpdHMg
UHR5IEx0ZDEVMBMGA1UEAwwMT3p6aWUgT3ptYW5uMIIBIjANBgkqhkiG9w0BAQEF
AAOCAQ8AMIIBCgKCAQEAxo3qIy0JSC9DmlenQVMXdcstrwfVmidkjPH6LNdMlxL3
ICHRBKGrIYh/Z67o0OEMQe4hnCoh4YH8I/yY9SAVztRUUvj9n5+41rPw7a4S18eI
qdGH8QMSiuGIPCXm/QrzWaltp/guHylPIruqp60knHC3L3b58MN1Di8efySEoa0z
FXbAc1GBhqncJ66M5qvZxGZfI+IJboJ3kp6TExP91SjXAbw5oIX11HOSKo8GghL8
6rleP5Uk0aPjGqaPUsGb0XYBu6OtcrF3AtTtuRNX45AyTc+ccK671H7n3I1+zpNd
Fd1lnN0LayE6ZIr+XmMCV5kr5anl8qi7GbWXZ/HkFwIDAQABMA0GCSqGSIb3DQEB
CwUAA4IBAQAGJow4WQl7MiJjeEI8Q9G6MKNmYCqBwP/C1J+qwLoLaogtLSa+3+58
czw+6S+yepXbsHqh7BKeew4fd6kR8JqliI1PC3y9DZE2dK8/fmzMZKK7sDosRP+p
G9ZNz9S0Ih5Un1OA37o2iIU70usR5f+qza7PiNwV1FDRBCDPjUR4V8JML+Nlgg8u
MMT1u51S23eps00HOskkjyUkDsTHyGpKwZsbFHZ1nYr8/O3caXpK94d8UiV+yPYH
9AdjUsAs4dBaNa1tK0vdJ0vqf7kRoHqPw511+1K4XTpca9cTwCVfeh0h4nNOpeRg
xEKmvR/EewryBDJPaU31JQdVyqlEMtgm
-----END CERTIFICATE-----
