Certificate:
    Data:
        Version: 1 (0x0)
        Serial Number: 2 (0x2)
    Signature Algorithm: sha256WithRSAEncryption
        Issuer: C=US, ST=MO, L=Saint Louis, O=Object Computing (Security Attributes Identity CA), CN=Object Computing (Security Attributes Identity CA)/emailAddress=info@objectcomputing.com
        Validity
            Not Before: Apr 25 19:09:49 2018 GMT
            Not After : Apr 22 19:09:49 2028 GMT
        Subject: C=US, ST=California, O=Super Swanky Ski and Snow Shop, CN=Tahoe Joe
        Subject Public Key Info:
            Public Key Algorithm: rsaEncryption
                Public-Key: (2048 bit)
                Modulus:
                    00:d2:59:ad:77:6a:e7:33:d0:b7:ab:5e:da:dd:7b:
                    57:30:62:94:d4:7f:e4:7f:e7:13:8c:3e:cc:83:40:
                    41:a7:61:b1:3d:e1:a4:ef:4d:a4:89:6b:8f:5c:e2:
                    5a:9e:5f:e8:a7:c8:3b:2a:fb:d6:22:10:d0:14:22:
                    66:fe:3f:e1:ef:21:90:1a:41:bb:ac:90:5f:20:a5:
                    b5:f6:aa:32:b0:c2:26:47:91:ae:cf:80:f3:0b:bf:
                    ee:65:0f:1a:da:49:b0:c4:7d:4f:f1:9a:d3:8b:88:
                    64:33:8a:bf:ac:44:28:4b:b9:c6:25:93:96:61:1a:
                    fc:6e:aa:3f:7d:a2:50:26:3c:96:2c:5b:92:cd:bf:
                    32:1d:7f:3f:eb:1e:bc:56:bb:29:92:44:68:74:62:
                    13:95:bf:9c:48:db:af:fe:9f:94:c6:95:a6:5f:37:
                    9d:4a:ff:f2:df:0c:07:af:a9:b4:2d:29:0a:51:f2:
                    c5:97:96:10:fa:76:b7:24:b4:99:b2:77:39:0e:48:
                    18:c4:9e:65:d5:51:a2:0a:d7:23:95:de:7f:f3:d4:
                    0b:2e:80:88:bc:07:76:7e:ad:19:27:61:da:cb:96:
                    c9:65:be:f4:36:82:22:77:be:d7:7a:e9:7a:09:09:
                    e4:dd:ad:d8:a3:02:74:6c:7d:11:d3:55:81:78:c7:
                    0b:75
                Exponent: 65537 (0x10001)
    Signature Algorithm: sha256WithRSAEncryption
         7d:35:f4:e4:0f:0f:af:24:a1:20:aa:36:26:03:ba:de:44:d8:
         df:7f:05:b6:29:fb:a9:c3:cc:53:79:b1:c9:09:32:db:7e:d4:
         54:49:e8:e3:6b:50:a7:76:eb:b2:91:fd:ad:b8:fb:f9:7e:16:
         54:9d:03:74:0c:dc:70:3e:fd:68:24:15:b4:7e:01:d0:da:c8:
         cc:ec:02:96:82:02:a0:1f:87:19:74:f1:d3:ea:65:8c:0b:d3:
         e0:40:c3:e5:bd:7c:06:ce:fe:44:e9:ad:e6:fc:3e:08:9d:ed:
         ff:7a:ae:0d:d0:82:8b:3a:4e:9e:f7:34:24:16:68:f7:91:c9:
         fd:a6:80:09:9d:43:9e:04:15:ea:e2:9f:f4:a7:ea:5c:ac:d9:
         dc:39:99:44:dc:89:14:4c:e3:da:bb:08:a8:51:dd:91:d2:49:
         6c:02:dc:4a:ed:c4:20:29:ea:b0:4f:66:da:2e:7f:f6:10:1d:
         fa:6e:eb:50:41:14:ad:a8:c6:c0:7e:e2:13:8c:ce:4f:60:a0:
         c4:ec:d2:95:50:d7:1f:52:ac:5e:c9:e0:9e:a4:7f:2c:2e:fb:
         4c:1a:8b:44:f4:05:a7:74:7a:60:89:f4:fc:59:e7:fc:6b:6a:
         18:59:0d:a1:d8:5f:40:88:cd:e4:b3:ee:d8:b7:62:ef:b6:94:
         dc:b7:f0:13
-----BEGIN CERTIFICATE-----
MIIDpzCCAo8CAQIwDQYJKoZIhvcNAQELBQAwgdMxCzAJBgNVBAYTAlVTMQswCQYD
VQQIDAJNTzEUMBIGA1UEBwwLU2FpbnQgTG91aXMxOzA5BgNVBAoMMk9iamVjdCBD
b21wdXRpbmcgKFNlY3VyaXR5IEF0dHJpYnV0ZXMgSWRlbnRpdHkgQ0EpMTswOQYD
VQQDDDJPYmplY3QgQ29tcHV0aW5nIChTZWN1cml0eSBBdHRyaWJ1dGVzIElkZW50
aXR5IENBKTEnMCUGCSqGSIb3DQEJARYYaW5mb0BvYmplY3Rjb21wdXRpbmcuY29t
MB4XDTE4MDQyNTE5MDk0OVoXDTI4MDQyMjE5MDk0OVowXzELMAkGA1UEBhMCVVMx
EzARBgNVBAgMCkNhbGlmb3JuaWExJzAlBgNVBAoMHlN1cGVyIFN3YW5reSBTa2kg
YW5kIFNub3cgU2hvcDESMBAGA1UEAwwJVGFob2UgSm9lMIIBIjANBgkqhkiG9w0B
AQEFAAOCAQ8AMIIBCgKCAQEA0lmtd2rnM9C3q17a3XtXMGKU1H/kf+cTjD7Mg0BB
p2GxPeGk702kiWuPXOJanl/op8g7KvvWIhDQFCJm/j/h7yGQGkG7rJBfIKW19qoy
sMImR5Guz4DzC7/uZQ8a2kmwxH1P8ZrTi4hkM4q/rEQoS7nGJZOWYRr8bqo/faJQ
JjyWLFuSzb8yHX8/6x68VrspkkRodGITlb+cSNuv/p+UxpWmXzedSv/y3wwHr6m0
LSkKUfLFl5YQ+na3JLSZsnc5DkgYxJ5l1VGiCtcjld5/89QLLoCIvAd2fq0ZJ2Ha
y5bJZb70NoIid77Xeul6CQnk3a3YowJ0bH0R01WBeMcLdQIDAQABMA0GCSqGSIb3
DQEBCwUAA4IBAQB9NfTkDw+vJKEgqjYmA7reRNjffwW2Kfupw8xTebHJCTLbftRU
Sejja1Cnduuykf2tuPv5fhZUnQN0DNxwPv1oJBW0fgHQ2sjM7AKWggKgH4cZdPHT
6mWMC9PgQMPlvXwGzv5E6a3m/D4Ine3/eq4N0IKLOk6e9zQkFmj3kcn9poAJnUOe
BBXq4p/0p+pcrNncOZlE3IkUTOPauwioUd2R0klsAtxK7cQgKeqwT2baLn/2EB36
butQQRStqMbAfuITjM5PYKDE7NKVUNcfUqxeyeCepH8sLvtMGotE9AWndHpgifT8
Wef8a2oYWQ2h2F9AiM3ks+7Yt2LvtpTct/AT
-----END CERTIFICATE-----
