Certificate:
    Data:
        Version: 1 (0x0)
        Serial Number: 3 (0x3)
    Signature Algorithm: sha256WithRSAEncryption
        Issuer: C=US, ST=MO, L=Saint Louis, O=Object Computing (Security Attributes Identity CA), CN=Object Computing (Security Attributes Identity CA)/emailAddress=info@objectcomputing.com
        Validity
            Not Before: Jun 11 21:31:32 2018 GMT
            Not After : Jun  8 21:31:32 2028 GMT
        Subject: C=GB, ST=JQ, O=Bob's Magical Widget Factory, CN=Roberto Gonzales/emailAddress=bob@magicalwidgets.com
        Subject Public Key Info:
            Public Key Algorithm: id-ecPublicKey
                Public-Key: (256 bit)
                pub:
                    04:cb:14:b6:5c:70:29:e8:52:3c:e0:15:51:f3:6c:
                    27:ae:64:44:e3:50:98:4e:48:cc:b6:26:f2:6e:31:
                    c6:7e:36:6f:19:a4:f1:66:c7:48:a0:23:96:56:4c:
                    0c:5b:55:d6:9f:d4:c6:97:86:3a:43:85:65:69:d8:
                    f6:48:aa:00:eb
                ASN1 OID: prime256v1
                NIST CURVE: P-256
    Signature Algorithm: sha256WithRSAEncryption
         7d:62:aa:a7:0c:35:02:84:b4:48:97:a2:70:0b:9a:b0:3f:d0:
         4d:5f:ce:75:4c:26:57:2e:3e:39:ec:e2:ec:a6:fb:de:4d:b5:
         65:77:64:c2:94:ac:d5:3f:df:8d:46:52:8a:80:4f:b4:41:5d:
         c5:ae:b2:c4:2e:b6:02:78:7b:70:cb:23:7d:29:4e:e2:3b:8f:
         fe:3f:b9:d7:1a:ac:3f:03:47:99:a6:ed:56:b2:df:01:f1:68:
         ce:f5:d6:f8:fe:e3:fd:93:c7:86:d5:84:1e:d4:ba:4d:9f:29:
         c4:82:89:48:88:c4:e7:77:86:b0:c3:47:76:4e:b8:5d:b8:55:
         f7:d4:b9:40:7f:f8:05:f1:d9:c3:61:7d:30:76:4c:5e:0f:e3:
         e5:f7:2a:c4:2a:78:cf:24:a8:96:71:c1:2b:d0:f3:5a:66:ae:
         ed:e4:3b:67:fd:36:22:6a:0e:5b:7f:b1:60:05:83:be:15:36:
         f6:99:af:21:e9:dd:ad:21:a6:b3:18:5c:69:97:e1:47:9d:57:
         0e:ec:aa:b3:f6:4f:54:3e:ef:e2:6c:a7:9d:9f:e7:44:1d:92:
         5f:8f:bd:23:02:77:2a:3e:5b:0f:be:d7:44:6b:17:72:89:80:
         67:a3:a0:d7:b5:88:7e:5c:cf:cd:22:89:2f:c5:e0:a2:3a:9e:
         87:18:c6:9f
-----BEGIN CERTIFICATE-----
MIIDATCCAekCAQMwDQYJKoZIhvcNAQELBQAwgdMxCzAJBgNVBAYTAlVTMQswCQYD
VQQIDAJNTzEUMBIGA1UEBwwLU2FpbnQgTG91aXMxOzA5BgNVBAoMMk9iamVjdCBD
b21wdXRpbmcgKFNlY3VyaXR5IEF0dHJpYnV0ZXMgSWRlbnRpdHkgQ0EpMTswOQYD
VQQDDDJPYmplY3QgQ29tcHV0aW5nIChTZWN1cml0eSBBdHRyaWJ1dGVzIElkZW50
aXR5IENBKTEnMCUGCSqGSIb3DQEJARYYaW5mb0BvYmplY3Rjb21wdXRpbmcuY29t
MB4XDTE4MDYxMTIxMzEzMloXDTI4MDYwODIxMzEzMlowgYMxCzAJBgNVBAYTAkdC
MQswCQYDVQQIDAJKUTElMCMGA1UECgwcQm9iJ3MgTWFnaWNhbCBXaWRnZXQgRmFj
dG9yeTEZMBcGA1UEAwwQUm9iZXJ0byBHb256YWxlczElMCMGCSqGSIb3DQEJARYW
Ym9iQG1hZ2ljYWx3aWRnZXRzLmNvbTBZMBMGByqGSM49AgEGCCqGSM49AwEHA0IA
BMsUtlxwKehSPOAVUfNsJ65kRONQmE5IzLYm8m4xxn42bxmk8WbHSKAjllZMDFtV
1p/UxpeGOkOFZWnY9kiqAOswDQYJKoZIhvcNAQELBQADggEBAH1iqqcMNQKEtEiX
onALmrA/0E1fznVMJlcuPjns4uym+95NtWV3ZMKUrNU/341GUoqAT7RBXcWussQu
tgJ4e3DLI30pTuI7j/4/udcarD8DR5mm7Vay3wHxaM711vj+4/2Tx4bVhB7Uuk2f
KcSCiUiIxOd3hrDDR3ZOuF24VffUuUB/+AXx2cNhfTB2TF4P4+X3KsQqeM8kqJZx
wSvQ81pmru3kO2f9NiJqDlt/sWAFg74VNvaZryHp3a0hprMYXGmX4UedVw7sqrP2
T1Q+7+Jsp52f50Qdkl+PvSMCdyo+Ww++10RrF3KJgGejoNe1iH5cz80iiS/F4KI6
nocYxp8=
-----END CERTIFICATE-----
