Certificate:
    Data:
        Version: 1 (0x0)
        Serial Number: 4 (0x4)
    Signature Algorithm: sha256WithRSAEncryption
        Issuer: C=US, ST=MO, L=Saint Louis, O=Object Computing (Security Attributes Identity CA), CN=Object Computing (Security Attributes Identity CA)/emailAddress=info@objectcomputing.com
        Validity
            Not Before: Jun 12 14:45:39 2018 GMT
            Not After : Jun  9 14:45:39 2028 GMT
        Subject: C=CA, ST=Nunavut, O=House of Fuppy, OU=The Upper Room, CN=Fuppy Fuppington III/emailAddress=fuppy@mail.fuphouse.ca
        Subject Public Key Info:
            Public Key Algorithm: id-ecPublicKey
                Public-Key: (256 bit)
                pub:
                    04:6f:81:e3:db:c4:b8:00:06:27:07:28:45:6c:3c:
                    a1:35:25:e0:32:66:4e:34:70:5c:ed:40:af:d2:9b:
                    f6:25:d1:7c:b7:6e:a6:cf:95:87:7b:03:4c:39:3c:
                    7d:f5:ce:fb:28:1f:8d:21:fd:ff:f4:0b:51:fb:19:
                    09:5a:f1:e2:92
                ASN1 OID: prime256v1
                NIST CURVE: P-256
    Signature Algorithm: sha256WithRSAEncryption
         6f:fa:28:13:bf:ab:d1:b7:fd:38:ce:62:68:a6:89:8e:2e:47:
         dd:a6:b4:bf:54:f0:cd:8f:2a:e5:22:1e:41:56:f9:87:ce:2e:
         b9:43:30:5b:72:49:41:ca:07:93:41:ee:3f:cd:0c:67:4b:78:
         ad:f7:b6:1a:e6:18:ce:50:54:83:1f:c6:62:49:d4:a5:c7:26:
         a8:09:55:9b:de:ac:ca:b0:53:ff:f1:3b:37:d1:c5:cf:f0:64:
         70:7f:ec:b5:dd:71:01:ee:47:be:ff:b9:80:15:dc:b2:a5:25:
         62:22:8d:bf:35:61:5d:f7:ce:27:0c:29:fc:f0:45:93:78:58:
         3a:d0:36:14:1e:5a:1c:19:72:00:16:fe:38:c4:e6:2e:59:64:
         96:e7:04:34:66:2f:5f:63:12:ad:4f:ee:96:65:bc:ad:9c:86:
         b9:7b:df:e3:71:2b:d0:8e:0e:c0:12:05:35:36:45:80:3f:6a:
         74:24:78:16:29:d8:2f:8f:5c:97:c4:06:72:b2:a1:3b:53:9c:
         9d:0b:36:0b:b2:be:24:50:4c:db:29:f9:05:95:75:17:6e:99:
         a2:b8:a6:e0:42:92:71:e0:f4:3a:c1:82:86:1d:bc:a0:80:dd:
         c2:d4:ad:a4:c6:69:ce:5e:ba:61:41:d6:39:e8:f2:ac:a2:d4:
         ef:65:ee:11
-----BEGIN CERTIFICATE-----
MIIDFTCCAf0CAQQwDQYJKoZIhvcNAQELBQAwgdMxCzAJBgNVBAYTAlVTMQswCQYD
VQQIDAJNTzEUMBIGA1UEBwwLU2FpbnQgTG91aXMxOzA5BgNVBAoMMk9iamVjdCBD
b21wdXRpbmcgKFNlY3VyaXR5IEF0dHJpYnV0ZXMgSWRlbnRpdHkgQ0EpMTswOQYD
VQQDDDJPYmplY3QgQ29tcHV0aW5nIChTZWN1cml0eSBBdHRyaWJ1dGVzIElkZW50
aXR5IENBKTEnMCUGCSqGSIb3DQEJARYYaW5mb0BvYmplY3Rjb21wdXRpbmcuY29t
MB4XDTE4MDYxMjE0NDUzOVoXDTI4MDYwOTE0NDUzOVowgZcxCzAJBgNVBAYTAkNB
MRAwDgYDVQQIDAdOdW5hdnV0MRcwFQYDVQQKDA5Ib3VzZSBvZiBGdXBweTEXMBUG
A1UECwwOVGhlIFVwcGVyIFJvb20xHTAbBgNVBAMMFEZ1cHB5IEZ1cHBpbmd0b24g
SUlJMSUwIwYJKoZIhvcNAQkBFhZmdXBweUBtYWlsLmZ1cGhvdXNlLmNhMFkwEwYH
KoZIzj0CAQYIKoZIzj0DAQcDQgAEb4Hj28S4AAYnByhFbDyhNSXgMmZONHBc7UCv
0pv2JdF8t26mz5WHewNMOTx99c77KB+NIf3/9AtR+xkJWvHikjANBgkqhkiG9w0B
AQsFAAOCAQEAb/ooE7+r0bf9OM5iaKaJji5H3aa0v1TwzY8q5SIeQVb5h84uuUMw
W3JJQcoHk0HuP80MZ0t4rfe2GuYYzlBUgx/GYknUpccmqAlVm96syrBT//E7N9HF
z/BkcH/std1xAe5Hvv+5gBXcsqUlYiKNvzVhXffOJwwp/PBFk3hYOtA2FB5aHBly
ABb+OMTmLllklucENGYvX2MSrU/ulmW8rZyGuXvf43Er0I4OwBIFNTZFgD9qdCR4
FinYL49cl8QGcrKhO1OcnQs2C7K+JFBM2yn5BZV1F26Zorim4EKSceD0OsGChh28
oIDdwtStpMZpzl66YUHWOejyrKLU72XuEQ==
-----END CERTIFICATE-----
