Certificate:
    Data:
        Version: 1 (0x0)
        Serial Number: 3 (0x3)
    Signature Algorithm: sha256WithRSAEncryption
        Issuer: C=US, ST=MO, L=Saint Louis, O=Object Computing (Test Identity CA), CN=Object Computing (Test Identity CA)/emailAddress=info@objectcomputing.com
        Validity
            Not Before: Jun 13 04:17:00 2018 GMT
            Not After : Jun 10 04:17:00 2028 GMT
        Subject: C=GB, ST=JQ, O=Bob's Magical Widget Factory, CN=Roberto Gonzales/emailAddress=bob@magicalwidgets.com
        Subject Public Key Info:
            Public Key Algorithm: id-ecPublicKey
                Public-Key: (256 bit)
                pub:
                    04:c4:ba:31:23:a2:65:2e:31:e7:ab:a7:7d:b9:5b:
                    ae:f5:88:31:3e:6e:f4:44:ef:71:9a:87:c9:73:45:
                    31:1b:3c:bc:3a:20:24:ce:da:fe:80:32:47:f4:d4:
                    d9:4c:d9:34:9a:77:0e:16:f3:50:04:e6:34:58:97:
                    84:f1:7b:9f:79
                ASN1 OID: prime256v1
                NIST CURVE: P-256
    Signature Algorithm: sha256WithRSAEncryption
         91:a8:02:0e:fa:26:c3:53:3d:9e:36:23:9d:9c:a0:7b:1b:3d:
         52:1b:e9:99:2a:45:c6:3e:e2:55:29:38:44:aa:29:f5:55:e5:
         d8:fa:bb:75:84:e3:0c:77:37:20:cd:bf:84:bb:c9:7f:98:70:
         8d:26:23:8a:4d:71:b2:54:67:c0:41:11:e7:82:db:0d:91:63:
         1a:cd:de:02:d3:97:56:29:08:92:67:d8:28:4b:a4:d0:b9:7a:
         68:1b:8d:7a:97:2c:cc:e6:e4:24:3c:b9:ec:6a:4d:5b:15:90:
         0b:d1:e9:01:c7:d4:63:be:c8:75:a5:13:40:c5:79:06:69:d2:
         af:9d:25:60:0f:41:b0:1b:73:54:db:7d:6b:fe:56:77:8e:7b:
         85:81:88:9a:85:9b:b5:96:d9:33:c0:f3:07:60:9e:c8:81:51:
         7e:ff:5c:6c:b7:90:5d:f3:0a:07:aa:a2:5a:a5:d1:a1:3c:f8:
         68:ae:d9:55:3e:12:99:81:c4:01:dc:c4:89:2c:6d:96:ad:bb:
         6c:ab:7c:41:60:3f:f3:3a:71:6e:f6:c8:66:96:96:53:94:1f:
         ab:90:12:07:b6:7a:9d:72:15:40:f9:9f:35:f4:a2:e6:8a:85:
         04:29:35:c9:34:d0:ce:16:3a:d9:50:78:29:eb:bd:eb:ec:7f:
         84:7a:8f:4d
-----BEGIN CERTIFICATE-----
MIIC4zCCAcsCAQMwDQYJKoZIhvcNAQELBQAwgbUxCzAJBgNVBAYTAlVTMQswCQYD
VQQIDAJNTzEUMBIGA1UEBwwLU2FpbnQgTG91aXMxLDAqBgNVBAoMI09iamVjdCBD
b21wdXRpbmcgKFRlc3QgSWRlbnRpdHkgQ0EpMSwwKgYDVQQDDCNPYmplY3QgQ29t
cHV0aW5nIChUZXN0IElkZW50aXR5IENBKTEnMCUGCSqGSIb3DQEJARYYaW5mb0Bv
YmplY3Rjb21wdXRpbmcuY29tMB4XDTE4MDYxMzA0MTcwMFoXDTI4MDYxMDA0MTcw
MFowgYMxCzAJBgNVBAYTAkdCMQswCQYDVQQIDAJKUTElMCMGA1UECgwcQm9iJ3Mg
TWFnaWNhbCBXaWRnZXQgRmFjdG9yeTEZMBcGA1UEAwwQUm9iZXJ0byBHb256YWxl
czElMCMGCSqGSIb3DQEJARYWYm9iQG1hZ2ljYWx3aWRnZXRzLmNvbTBZMBMGByqG
SM49AgEGCCqGSM49AwEHA0IABMS6MSOiZS4x56unfblbrvWIMT5u9ETvcZqHyXNF
MRs8vDogJM7a/oAyR/TU2UzZNJp3DhbzUATmNFiXhPF7n3kwDQYJKoZIhvcNAQEL
BQADggEBAJGoAg76JsNTPZ42I52coHsbPVIb6ZkqRcY+4lUpOESqKfVV5dj6u3WE
4wx3NyDNv4S7yX+YcI0mI4pNcbJUZ8BBEeeC2w2RYxrN3gLTl1YpCJJn2ChLpNC5
emgbjXqXLMzm5CQ8uexqTVsVkAvR6QHH1GO+yHWlE0DFeQZp0q+dJWAPQbAbc1Tb
fWv+VneOe4WBiJqFm7WW2TPA8wdgnsiBUX7/XGy3kF3zCgeqolql0aE8+Giu2VU+
EpmBxAHcxIksbZatu2yrfEFgP/M6cW72yGaWllOUH6uQEge2ep1yFUD5nzX0ouaK
hQQpNck00M4WOtlQeCnrvevsf4R6j00=
-----END CERTIFICATE-----
