Certificate:
    Data:
        Version: 1 (0x0)
        Serial Number: 4 (0x4)
    Signature Algorithm: sha256WithRSAEncryption
        Issuer: C=US, ST=MA, L=Boston, O=OMG-DDS SIG (Identity CA), CN=OMG-DDS (Iden CA)/emailAddress=dds@omg.org
        Validity
            Not Before: Mar 18 22:46:37 2018 GMT
            Not After : Mar 15 22:46:37 2028 GMT
        Subject: C=US, ST=MO, O=Object Computing, CN=CN_TEST_DDS-SECURITY_OCI_OPENDDS/emailAddress=support@objectcomputing.com
        Subject Public Key Info:
            Public Key Algorithm: rsaEncryption
                Public-Key: (2048 bit)
                Modulus:
                    00:cd:0c:29:44:bc:26:9e:6f:89:88:b9:5d:63:b6:
                    36:23:d5:9d:46:03:63:2e:3b:89:55:2f:32:3c:0f:
                    45:b0:c8:22:58:91:11:b2:fd:d0:8a:b8:b4:ba:9c:
                    88:c8:56:8b:6f:61:f9:f9:0a:89:da:27:a2:31:cf:
                    56:9c:37:e6:ee:9a:8d:8e:a1:ee:2a:4f:f2:34:dd:
                    77:9f:f0:fe:80:7f:fd:09:30:75:bc:a0:d2:64:b5:
                    aa:9a:09:ee:f6:f0:ca:7a:be:72:75:8d:29:e4:53:
                    01:58:82:86:1e:ed:1e:4c:e8:af:54:6e:85:83:6c:
                    3b:20:f0:fd:32:9b:e4:98:87:80:1b:87:ef:27:df:
                    c7:4b:37:7c:ee:80:90:21:e6:c1:bf:b9:f7:42:04:
                    10:0d:ac:a0:fa:2c:5b:e9:b9:a9:79:26:ac:16:5c:
                    bc:a8:0d:a1:71:cb:b7:0d:84:d2:fc:0d:4a:1e:41:
                    3c:e5:7a:a4:ef:d6:02:38:67:e3:20:5e:f3:60:4a:
                    d9:7d:b4:25:e7:3b:5c:72:c0:e6:0f:8e:14:f9:73:
                    e6:b6:89:7d:6d:f8:08:ec:66:93:c2:59:a7:15:14:
                    61:32:80:f6:6e:23:55:ec:a6:dd:da:b8:1e:28:38:
                    c7:ac:44:d1:4d:86:c8:b5:f7:66:d6:c0:5f:17:39:
                    2f:29
                Exponent: 65537 (0x10001)
    Signature Algorithm: sha256WithRSAEncryption
         cc:1b:9f:f6:af:28:7e:bc:8d:54:09:8f:58:06:6b:51:10:87:
         35:c6:bf:20:0e:0c:25:3d:32:66:40:2b:d3:fd:62:c1:32:c3:
         88:cc:9f:e7:e8:d0:de:de:ad:0b:fd:90:d1:ad:1b:5e:24:24:
         a3:2c:63:a2:89:c7:a2:d7:99:0f:d8:57:7b:8b:fe:2d:3c:e4:
         80:2c:3e:85:1e:ad:40:f9:5d:d9:49:8e:1a:37:83:f2:b6:3b:
         70:eb:67:21:39:da:68:41:5f:6a:38:da:50:c8:46:f3:df:f1:
         d9:c4:0a:4c:c4:0f:a2:16:17:14:7f:d2:e2:da:09:71:8d:3f:
         0d:3e:59:31:56:f6:9b:70:f5:1c:39:e1:89:94:d0:d7:72:69:
         1c:72:6d:6a:e8:74:73:98:c8:0d:a3:15:18:ae:a5:4e:41:c5:
         b1:5b:2c:00:85:60:b8:40:b6:c9:a4:3f:a0:98:48:4a:73:3e:
         d1:f8:4d:86:1a:e0:dd:46:7f:55:25:ee:28:39:29:67:bf:4d:
         5f:5e:17:b8:47:96:a5:32:a5:6a:5a:5d:04:6f:a4:07:a1:5e:
         d3:0d:3a:84:00:86:53:56:de:5e:83:bd:87:71:b3:b9:56:70:
         2b:47:1d:7d:7d:f5:ef:c0:41:9f:04:08:d8:c0:1a:56:d7:ac:
         04:78:9e:5d
-----BEGIN CERTIFICATE-----
MIIDiTCCAnECAQQwDQYJKoZIhvcNAQELBQAwgYcxCzAJBgNVBAYTAlVTMQswCQYD
VQQIDAJNQTEPMA0GA1UEBwwGQm9zdG9uMSIwIAYDVQQKDBlPTUctRERTIFNJRyAo
SWRlbnRpdHkgQ0EpMRowGAYDVQQDDBFPTUctRERTIChJZGVuIENBKTEaMBgGCSqG
SIb3DQEJARYLZGRzQG9tZy5vcmcwHhcNMTgwMzE4MjI0NjM3WhcNMjgwMzE1MjI0
NjM3WjCBjDELMAkGA1UEBhMCVVMxCzAJBgNVBAgMAk1PMRkwFwYDVQQKDBBPYmpl
Y3QgQ29tcHV0aW5nMSkwJwYDVQQDDCBDTl9URVNUX0REUy1TRUNVUklUWV9PQ0lf
T1BFTkREUzEqMCgGCSqGSIb3DQEJARYbc3VwcG9ydEBvYmplY3Rjb21wdXRpbmcu
Y29tMIIBIjANBgkqhkiG9w0BAQEFAAOCAQ8AMIIBCgKCAQEAzQwpRLwmnm+JiLld
Y7Y2I9WdRgNjLjuJVS8yPA9FsMgiWJERsv3Qiri0upyIyFaLb2H5+QqJ2ieiMc9W
nDfm7pqNjqHuKk/yNN13n/D+gH/9CTB1vKDSZLWqmgnu9vDKer5ydY0p5FMBWIKG
Hu0eTOivVG6Fg2w7IPD9MpvkmIeAG4fvJ9/HSzd87oCQIebBv7n3QgQQDayg+ixb
6bmpeSasFly8qA2hccu3DYTS/A1KHkE85Xqk79YCOGfjIF7zYErZfbQl5ztccsDm
D44U+XPmtol9bfgI7GaTwlmnFRRhMoD2biNV7Kbd2rgeKDjHrETRTYbItfdm1sBf
FzkvKQIDAQABMA0GCSqGSIb3DQEBCwUAA4IBAQDMG5/2ryh+vI1UCY9YBmtREIc1
xr8gDgwlPTJmQCvT/WLBMsOIzJ/n6NDe3q0L/ZDRrRteJCSjLGOiicei15kP2Fd7
i/4tPOSALD6FHq1A+V3ZSY4aN4Pytjtw62chOdpoQV9qONpQyEbz3/HZxApMxA+i
FhcUf9Li2glxjT8NPlkxVvabcPUcOeGJlNDXcmkccm1q6HRzmMgNoxUYrqVOQcWx
WywAhWC4QLbJpD+gmEhKcz7R+E2GGuDdRn9VJe4oOSlnv01fXhe4R5alMqVqWl0E
b6QHoV7TDTqEAIZTVt5eg72HcbO5VnArRx19ffXvwEGfBAjYwBpW16wEeJ5d
-----END CERTIFICATE-----
