Certificate:
    Data:
        Version: 1 (0x0)
        Serial Number: 3 (0x3)
    Signature Algorithm: sha256WithRSAEncryption
        Issuer: C=US, ST=MA, L=Boston, O=OMG-DDS SIG (Identity CA), CN=OMG-DDS (Iden CA)/emailAddress=dds@omg.org
        Validity
            Not Before: Mar  2 16:13:39 2018 GMT
            Not After : Feb 28 16:13:39 2028 GMT
        Subject: C=US, ST=MO, O=Object Computing, Inc., CN=CN_TEST_DDS-SECURITY_OCI_OPENDDS/emailAddress=support@objectcomputing.com
        Subject Public Key Info:
            Public Key Algorithm: rsaEncryption
                Public-Key: (2048 bit)
                Modulus:
                    00:cd:0c:29:44:bc:26:9e:6f:89:88:b9:5d:63:b6:
                    36:23:d5:9d:46:03:63:2e:3b:89:55:2f:32:3c:0f:
                    45:b0:c8:22:58:91:11:b2:fd:d0:8a:b8:b4:ba:9c:
                    88:c8:56:8b:6f:61:f9:f9:0a:89:da:27:a2:31:cf:
                    56:9c:37:e6:ee:9a:8d:8e:a1:ee:2a:4f:f2:34:dd:
                    77:9f:f0:fe:80:7f:fd:09:30:75:bc:a0:d2:64:b5:
                    aa:9a:09:ee:f6:f0:ca:7a:be:72:75:8d:29:e4:53:
                    01:58:82:86:1e:ed:1e:4c:e8:af:54:6e:85:83:6c:
                    3b:20:f0:fd:32:9b:e4:98:87:80:1b:87:ef:27:df:
                    c7:4b:37:7c:ee:80:90:21:e6:c1:bf:b9:f7:42:04:
                    10:0d:ac:a0:fa:2c:5b:e9:b9:a9:79:26:ac:16:5c:
                    bc:a8:0d:a1:71:cb:b7:0d:84:d2:fc:0d:4a:1e:41:
                    3c:e5:7a:a4:ef:d6:02:38:67:e3:20:5e:f3:60:4a:
                    d9:7d:b4:25:e7:3b:5c:72:c0:e6:0f:8e:14:f9:73:
                    e6:b6:89:7d:6d:f8:08:ec:66:93:c2:59:a7:15:14:
                    61:32:80:f6:6e:23:55:ec:a6:dd:da:b8:1e:28:38:
                    c7:ac:44:d1:4d:86:c8:b5:f7:66:d6:c0:5f:17:39:
                    2f:29
                Exponent: 65537 (0x10001)
    Signature Algorithm: sha256WithRSAEncryption
         9d:5d:cd:48:6e:7b:a0:0b:11:9a:c4:71:ad:53:5f:c7:6c:17:
         11:db:f9:96:f9:14:8f:ad:30:94:fa:2a:c0:56:e2:de:94:30:
         38:83:a2:33:a5:83:ec:90:dc:79:1b:77:ae:7d:78:88:f4:93:
         81:64:43:69:d5:26:3c:ae:d7:c8:21:08:d7:3f:ed:3a:77:b4:
         61:fa:33:53:d1:b5:f2:40:75:55:6f:3e:c6:89:39:4d:ea:a9:
         69:03:28:49:7b:6d:24:31:19:ec:52:34:64:40:a1:b2:53:69:
         d2:77:41:66:02:86:e9:2e:ae:d6:c9:07:cb:f7:ba:bf:83:25:
         d0:8f:d5:4f:01:43:da:cf:66:ac:43:5e:ad:98:96:66:fe:c5:
         51:1e:e8:0b:b5:fa:c4:d2:3d:b3:32:fd:d9:18:22:71:a7:95:
         86:89:9e:05:35:a3:a8:82:46:b0:a4:3e:2b:ca:b8:5b:6c:1f:
         e0:11:9e:50:dc:40:5d:40:e4:a5:05:a9:c4:68:3c:e8:6e:12:
         5e:af:81:40:4e:5c:d8:42:f6:53:c2:de:ab:4f:59:f5:8b:14:
         7c:49:c2:7e:58:40:7f:4c:80:33:64:03:f9:9e:e7:68:2f:57:
         49:2d:7b:6e:15:2c:3f:24:87:51:b9:c7:8d:0d:2a:6e:bb:9c:
         af:58:2c:a4
-----BEGIN CERTIFICATE-----
MIIDjzCCAncCAQMwDQYJKoZIhvcNAQELBQAwgYcxCzAJBgNVBAYTAlVTMQswCQYD
VQQIDAJNQTEPMA0GA1UEBwwGQm9zdG9uMSIwIAYDVQQKDBlPTUctRERTIFNJRyAo
SWRlbnRpdHkgQ0EpMRowGAYDVQQDDBFPTUctRERTIChJZGVuIENBKTEaMBgGCSqG
SIb3DQEJARYLZGRzQG9tZy5vcmcwHhcNMTgwMzAyMTYxMzM5WhcNMjgwMjI4MTYx
MzM5WjCBkjELMAkGA1UEBhMCVVMxCzAJBgNVBAgMAk1PMR8wHQYDVQQKDBZPYmpl
Y3QgQ29tcHV0aW5nLCBJbmMuMSkwJwYDVQQDDCBDTl9URVNUX0REUy1TRUNVUklU
WV9PQ0lfT1BFTkREUzEqMCgGCSqGSIb3DQEJARYbc3VwcG9ydEBvYmplY3Rjb21w
dXRpbmcuY29tMIIBIjANBgkqhkiG9w0BAQEFAAOCAQ8AMIIBCgKCAQEAzQwpRLwm
nm+JiLldY7Y2I9WdRgNjLjuJVS8yPA9FsMgiWJERsv3Qiri0upyIyFaLb2H5+QqJ
2ieiMc9WnDfm7pqNjqHuKk/yNN13n/D+gH/9CTB1vKDSZLWqmgnu9vDKer5ydY0p
5FMBWIKGHu0eTOivVG6Fg2w7IPD9MpvkmIeAG4fvJ9/HSzd87oCQIebBv7n3QgQQ
Dayg+ixb6bmpeSasFly8qA2hccu3DYTS/A1KHkE85Xqk79YCOGfjIF7zYErZfbQl
5ztccsDmD44U+XPmtol9bfgI7GaTwlmnFRRhMoD2biNV7Kbd2rgeKDjHrETRTYbI
tfdm1sBfFzkvKQIDAQABMA0GCSqGSIb3DQEBCwUAA4IBAQCdXc1IbnugCxGaxHGt
U1/HbBcR2/mW+RSPrTCU+irAVuLelDA4g6IzpYPskNx5G3eufXiI9JOBZENp1SY8
rtfIIQjXP+06d7Rh+jNT0bXyQHVVbz7GiTlN6qlpAyhJe20kMRnsUjRkQKGyU2nS
d0FmAobpLq7WyQfL97q/gyXQj9VPAUPaz2asQ16tmJZm/sVRHugLtfrE0j2zMv3Z
GCJxp5WGiZ4FNaOogkawpD4ryrhbbB/gEZ5Q3EBdQOSlBanEaDzobhJer4FATlzY
QvZTwt6rT1n1ixR8ScJ+WEB/TIAzZAP5nudoL1dJLXtuFSw/JIdRuceNDSpuu5yv
WCyk
-----END CERTIFICATE-----
