Certificate:
    Data:
        Version: 1 (0x0)
        Serial Number: 1 (0x1)
    Signature Algorithm: sha256WithRSAEncryption
        Issuer: C=US, ST=MO, L=Saint Louis, O=Object Computing (Test Identity CA), CN=Object Computing (Test Iden CA)/emailAddress=info@objectcomputing.com
        Validity
            Not Before: Feb 22 15:43:20 2018 GMT
            Not After : Feb 20 15:43:20 2028 GMT
        Subject: C=US, ST=MO, O=Object Computing (Test Identity CA), CN=Object Computing (Test Identity CA)/emailAddress=info@objectcomputing.com
        Subject Public Key Info:
            Public Key Algorithm: rsaEncryption
                Public-Key: (2048 bit)
                Modulus:
                    00:c5:20:ed:11:93:e6:fb:c1:70:c4:84:fb:5e:7f:
                    f0:eb:2a:68:18:a4:34:0e:65:3f:d4:41:b2:09:a3:
                    8a:17:a6:9f:79:5d:30:f3:8d:d5:1a:fc:92:7f:1e:
                    ce:1c:64:bf:0f:cb:d5:1c:29:0f:32:e5:75:18:b1:
                    b8:ef:1d:63:8e:07:85:2c:a2:e5:c2:22:dc:cb:1f:
                    4b:8c:ae:83:a7:72:eb:63:61:d3:46:5b:94:e0:4d:
                    65:4e:e2:a5:cb:f3:d2:c3:98:85:d9:e5:cd:04:34:
                    a8:0b:b3:8a:ae:78:a5:ee:ae:02:b4:da:3a:04:b4:
                    f1:a6:fa:4c:5c:e0:83:14:e9:15:ad:05:4f:4b:69:
                    5f:a2:8b:8d:d3:f0:0e:33:05:f9:3d:b2:d8:cf:19:
                    50:99:c2:a1:fa:66:59:fa:ee:b0:ce:2a:36:1d:fd:
                    02:b7:12:36:c0:fa:5a:a6:98:c8:0d:3b:b2:e9:79:
                    80:1c:e4:5e:ca:5e:63:8d:46:af:b1:a5:2c:55:2a:
                    b9:a4:ed:11:11:fd:11:58:9f:cb:ea:6f:76:75:d8:
                    21:c0:5c:f4:6e:9e:cf:6d:60:da:d8:0d:d9:21:85:
                    27:a9:13:81:c7:39:b7:88:0b:20:d3:eb:f6:9d:f1:
                    18:e4:e3:1d:1f:42:0e:3d:5f:b0:6a:82:5a:e8:a2:
                    ab:67
                Exponent: 65537 (0x10001)
    Signature Algorithm: sha256WithRSAEncryption
         c5:3e:89:58:f0:68:98:a0:0b:58:98:32:7e:8f:ee:1b:0a:b7:
         77:83:0e:66:98:08:44:5f:7a:d3:de:25:1e:ce:87:26:1b:6e:
         f2:d4:8b:e2:03:8b:c8:90:17:75:25:1b:03:20:eb:10:52:ed:
         82:b0:d7:54:42:6c:d6:e5:08:03:42:b0:f1:d6:69:dd:d1:3f:
         7c:b6:54:3b:76:ec:2d:92:b5:cc:91:bd:23:fe:41:48:62:4d:
         76:09:ba:4e:12:df:1d:9e:8b:87:bc:b7:20:59:a0:95:92:39:
         1f:c8:84:de:c6:bd:c3:d1:55:95:2d:28:c6:02:55:74:f2:20:
         30:b3:5a:92:37:67:19:e2:0e:1c:a4:f8:23:f1:09:87:4d:2c:
         6c:03:87:f9:aa:3e:6c:a0:4c:f9:75:36:cd:e0:c1:7b:1d:ac:
         14:41:cb:21:ca:a9:17:4e:c3:49:0c:3f:b7:0c:d3:e1:3b:d5:
         fe:63:9c:49:7f:0d:70:b9:31:32:ef:f9:7c:4b:e1:ea:7d:e5:
         06:12:6d:ca:6e:7b:4a:5e:96:37:f0:ad:4b:10:5c:0b:78:ad:
         dd:91:a3:35:e7:8e:69:d4:1d:1d:5d:e6:0e:7e:b1:44:9c:ef:
         6c:fe:e4:c4:cd:74:2f:ca:d4:78:03:cb:58:0c:c8:5e:81:d0:
         20:13:0b:e3
-----BEGIN CERTIFICATE-----
MIIDxjCCAq4CAQEwDQYJKoZIhvcNAQELBQAwgbExCzAJBgNVBAYTAlVTMQswCQYD
VQQIDAJNTzEUMBIGA1UEBwwLU2FpbnQgTG91aXMxLDAqBgNVBAoMI09iamVjdCBD
b21wdXRpbmcgKFRlc3QgSWRlbnRpdHkgQ0EpMSgwJgYDVQQDDB9PYmplY3QgQ29t
cHV0aW5nIChUZXN0IElkZW4gQ0EpMScwJQYJKoZIhvcNAQkBFhhpbmZvQG9iamVj
dGNvbXB1dGluZy5jb20wHhcNMTgwMjIyMTU0MzIwWhcNMjgwMjIwMTU0MzIwWjCB
nzELMAkGA1UEBhMCVVMxCzAJBgNVBAgMAk1PMSwwKgYDVQQKDCNPYmplY3QgQ29t
cHV0aW5nIChUZXN0IElkZW50aXR5IENBKTEsMCoGA1UEAwwjT2JqZWN0IENvbXB1
dGluZyAoVGVzdCBJZGVudGl0eSBDQSkxJzAlBgkqhkiG9w0BCQEWGGluZm9Ab2Jq
ZWN0Y29tcHV0aW5nLmNvbTCCASIwDQYJKoZIhvcNAQEBBQADggEPADCCAQoCggEB
AMUg7RGT5vvBcMSE+15/8OsqaBikNA5lP9RBsgmjihemn3ldMPON1Rr8kn8ezhxk
vw/L1RwpDzLldRixuO8dY44HhSyi5cIi3MsfS4yug6dy62Nh00ZblOBNZU7ipcvz
0sOYhdnlzQQ0qAuziq54pe6uArTaOgS08ab6TFzggxTpFa0FT0tpX6KLjdPwDjMF
+T2y2M8ZUJnCofpmWfrusM4qNh39ArcSNsD6WqaYyA07sul5gBzkXspeY41Gr7Gl
LFUquaTtERH9EVify+pvdnXYIcBc9G6ez21g2tgN2SGFJ6kTgcc5t4gLINPr9p3x
GOTjHR9CDj1fsGqCWuiiq2cCAwEAATANBgkqhkiG9w0BAQsFAAOCAQEAxT6JWPBo
mKALWJgyfo/uGwq3d4MOZpgIRF96094lHs6HJhtu8tSL4gOLyJAXdSUbAyDrEFLt
grDXVEJs1uUIA0Kw8dZp3dE/fLZUO3bsLZK1zJG9I/5BSGJNdgm6ThLfHZ6Lh7y3
IFmglZI5H8iE3sa9w9FVlS0oxgJVdPIgMLNakjdnGeIOHKT4I/EJh00sbAOH+ao+
bKBM+XU2zeDBex2sFEHLIcqpF07DSQw/twzT4TvV/mOcSX8NcLkxMu/5fEvh6n3l
BhJtym57Sl6WN/CtSxBcC3it3ZGjNeeOadQdHV3mDn6xRJzvbP7kxM10L8rUeAPL
WAzIXoHQIBML4w==
-----END CERTIFICATE-----
