Certificate:
    Data:
        Version: 1 (0x0)
        Serial Number: 2 (0x2)
    Signature Algorithm: sha256WithRSAEncryption
        Issuer: C=US, ST=MO, L=Saint Louis, O=Object Computing (Test Identity CA), CN=Object Computing (Test Iden CA)/emailAddress=info@objectcomputing.com
        Validity
            Not Before: Mar  2 15:10:53 2018 GMT
            Not After : Feb 28 15:10:53 2028 GMT
        Subject: C=US, ST=California, O=Bob's Magical Widget Factory, CN=www.example.com/emailAddress=bob@example.com
        Subject Public Key Info:
            Public Key Algorithm: rsaEncryption
                Public-Key: (2048 bit)
                Modulus:
                    00:b7:a9:b2:ee:e1:eb:c4:f7:c6:73:2c:5e:fe:6c:
                    62:01:b9:e7:3e:ee:dc:2c:33:50:9c:11:86:f7:b6:
                    07:11:fa:d9:49:9e:94:b2:c2:43:1c:d8:28:be:2e:
                    99:d4:7a:b5:de:27:9d:07:df:cf:10:89:42:3b:7d:
                    89:2b:0b:42:9a:51:43:ae:24:d0:ed:87:94:98:59:
                    c2:9a:63:a5:49:29:0c:ad:73:ea:5c:9e:cc:c5:7e:
                    bd:20:fd:4a:d3:39:1f:71:f5:a2:c6:ce:e0:9b:df:
                    ac:65:74:cd:88:6b:d1:6f:28:5c:0a:b9:8d:f8:91:
                    f0:1e:c1:d9:be:2f:24:bb:4c:60:b3:17:ba:97:a3:
                    fb:5b:f7:ba:66:a2:82:cf:9c:10:a7:e9:0c:58:85:
                    45:71:b3:00:50:58:1d:ad:66:c4:f5:c9:a8:6f:20:
                    3b:8f:5c:bb:c5:87:7e:c2:dc:0f:d0:7f:11:e9:b2:
                    85:a5:55:ae:d0:dc:1a:e2:e3:cd:3d:bb:d2:b1:da:
                    9e:b1:6f:2f:e3:bd:ff:21:80:62:3a:e1:f6:60:9e:
                    19:1b:35:fb:f0:5e:96:72:71:4b:73:7c:b3:09:9b:
                    58:f9:38:c6:bd:1a:12:ba:18:b0:d6:16:dc:d8:45:
                    84:5e:6d:2f:10:8f:4f:99:da:54:13:6c:8b:13:80:
                    b3:6d
                Exponent: 65537 (0x10001)
    Signature Algorithm: sha256WithRSAEncryption
         45:37:b9:48:45:3d:44:f2:1a:4b:52:41:38:75:b9:a1:2e:33:
         5b:b6:f5:8a:58:7a:e1:bc:fd:c6:5f:43:17:c4:9d:c5:8f:1e:
         89:91:d0:45:d1:0e:43:bf:72:28:71:95:ef:5b:a5:f4:6d:2d:
         78:44:52:0d:8f:76:34:d6:32:00:a2:29:37:df:ab:d8:21:a0:
         9a:12:7d:70:24:80:d8:2a:0c:e8:a4:f1:93:11:f2:99:96:78:
         62:c1:89:0b:de:a5:0d:eb:9c:93:27:ef:5a:07:33:0e:d9:8f:
         e7:e1:2f:56:36:b9:04:a4:57:e9:e1:19:68:54:09:67:80:3d:
         29:46:ba:51:f0:a9:aa:c0:0e:7c:ab:e9:81:e1:fb:f7:db:67:
         6e:bf:c1:b7:3a:81:b3:fa:84:ad:05:6b:0e:10:c8:30:ab:a3:
         6e:96:10:16:9f:82:ef:14:33:2d:69:89:29:1e:64:b8:b7:bf:
         c9:9b:70:48:ec:d3:da:14:3b:36:65:56:60:1f:fc:58:16:2c:
         71:13:d6:17:fc:79:e7:29:a3:3b:13:22:42:b4:de:fb:6e:2f:
         5d:1d:85:23:8b:b7:79:79:f7:0b:e6:52:d2:48:33:1b:67:10:
         00:b4:f0:ec:78:24:c9:ec:1d:a1:2f:e2:94:19:20:07:fc:e2:
         08:5c:3d:3c
-----BEGIN CERTIFICATE-----
MIIDqjCCApICAQIwDQYJKoZIhvcNAQELBQAwgbExCzAJBgNVBAYTAlVTMQswCQYD
VQQIDAJNTzEUMBIGA1UEBwwLU2FpbnQgTG91aXMxLDAqBgNVBAoMI09iamVjdCBD
b21wdXRpbmcgKFRlc3QgSWRlbnRpdHkgQ0EpMSgwJgYDVQQDDB9PYmplY3QgQ29t
cHV0aW5nIChUZXN0IElkZW4gQ0EpMScwJQYJKoZIhvcNAQkBFhhpbmZvQG9iamVj
dGNvbXB1dGluZy5jb20wHhcNMTgwMzAyMTUxMDUzWhcNMjgwMjI4MTUxMDUzWjCB
gzELMAkGA1UEBhMCVVMxEzARBgNVBAgMCkNhbGlmb3JuaWExJTAjBgNVBAoMHEJv
YidzIE1hZ2ljYWwgV2lkZ2V0IEZhY3RvcnkxGDAWBgNVBAMMD3d3dy5leGFtcGxl
LmNvbTEeMBwGCSqGSIb3DQEJARYPYm9iQGV4YW1wbGUuY29tMIIBIjANBgkqhkiG
9w0BAQEFAAOCAQ8AMIIBCgKCAQEAt6my7uHrxPfGcyxe/mxiAbnnPu7cLDNQnBGG
97YHEfrZSZ6UssJDHNgovi6Z1Hq13iedB9/PEIlCO32JKwtCmlFDriTQ7YeUmFnC
mmOlSSkMrXPqXJ7MxX69IP1K0zkfcfWixs7gm9+sZXTNiGvRbyhcCrmN+JHwHsHZ
vi8ku0xgsxe6l6P7W/e6ZqKCz5wQp+kMWIVFcbMAUFgdrWbE9cmobyA7j1y7xYd+
wtwP0H8R6bKFpVWu0Nwa4uPNPbvSsdqesW8v473/IYBiOuH2YJ4ZGzX78F6WcnFL
c3yzCZtY+TjGvRoSuhiw1hbc2EWEXm0vEI9PmdpUE2yLE4CzbQIDAQABMA0GCSqG
SIb3DQEBCwUAA4IBAQBFN7lIRT1E8hpLUkE4dbmhLjNbtvWKWHrhvP3GX0MXxJ3F
jx6JkdBF0Q5Dv3IocZXvW6X0bS14RFINj3Y01jIAoik336vYIaCaEn1wJIDYKgzo
pPGTEfKZlnhiwYkL3qUN65yTJ+9aBzMO2Y/n4S9WNrkEpFfp4RloVAlngD0pRrpR
8KmqwA58q+mB4fv322duv8G3OoGz+oStBWsOEMgwq6NulhAWn4LvFDMtaYkpHmS4
t7/Jm3BI7NPaFDs2ZVZgH/xYFixxE9YX/HnnKaM7EyJCtN77bi9dHYUji7d5efcL
5lLSSDMbZxAAtPDseCTJ7B2hL+KUGSAH/OIIXD08
-----END CERTIFICATE-----
