Certificate:
    Data:
        Version: 1 (0x0)
        Serial Number: 2 (0x2)
    Signature Algorithm: sha256WithRSAEncryption
        Issuer: C=US, ST=MO, L=Saint Louis, O=Object Computing (Test Identity CA), CN=Object Computing (Test Identity CA)/emailAddress=info@objectcomputing.com
        Validity
            Not Before: Jul 25 06:33:33 2023 GMT
            Not After : Jul 22 06:33:33 2033 GMT
        Subject: CN=Tahoe Joe, O=Super Swanky Ski and Snow Shop, ST=California, C=US
        Subject Public Key Info:
            Public Key Algorithm: rsaEncryption
                Public-Key: (2048 bit)
                Modulus:
                    00:f2:58:29:f5:20:78:90:9f:b1:1f:b4:ab:46:81:
                    73:a3:23:7c:de:a2:ab:15:8b:28:25:ab:9c:b1:ff:
                    30:7f:28:5c:d6:6f:e6:12:d0:c6:7a:9d:b5:ae:61:
                    80:64:bf:a8:94:7f:f0:fe:ef:e2:f7:13:f1:b3:bb:
                    32:43:ff:6c:0f:18:e4:f9:5e:9c:8c:ac:0d:76:1c:
                    c5:b7:87:eb:7a:b0:ec:34:05:ce:3c:19:ed:00:74:
                    0e:50:36:12:99:fd:64:45:0f:68:7e:5c:4c:ac:b1:
                    5b:7b:41:e9:85:5e:26:1e:d7:6a:d4:6c:4b:86:55:
                    66:a6:d0:13:b1:29:79:22:96:03:1c:99:c2:cc:e7:
                    3e:4b:87:5e:da:fd:b0:2c:7c:30:f2:de:3a:c7:d6:
                    6c:97:4a:b4:8f:9e:61:4b:31:c0:56:2f:04:ce:e2:
                    7e:de:52:82:a8:48:02:3d:4a:a4:5e:17:cd:20:5b:
                    6e:4a:ec:88:39:ac:bd:ae:20:cd:16:b3:cc:39:09:
                    0b:a1:8f:bb:76:14:42:b3:3d:4a:b3:5d:43:f6:de:
                    7b:6f:08:95:b9:54:17:0d:5e:15:71:55:54:0c:e6:
                    db:4e:66:c6:c8:73:c8:82:f3:db:4c:ba:37:5b:58:
                    b1:64:e6:eb:43:72:93:e1:0f:f4:79:64:4e:45:8f:
                    44:73
                Exponent: 65537 (0x10001)
    Signature Algorithm: sha256WithRSAEncryption
         68:01:2e:59:d6:fc:af:be:c4:71:29:59:9b:b9:1a:a9:56:2e:
         18:03:5d:b3:96:24:95:1b:78:df:48:6e:42:54:1b:db:12:d0:
         11:43:ba:ed:fb:9f:d2:7a:e3:a8:2b:a5:26:ee:3a:e8:7b:cd:
         5e:8d:9b:03:6f:d0:c6:22:03:83:96:18:27:bc:b2:5c:55:2a:
         0d:51:c7:78:3e:e5:16:25:15:bf:21:63:4e:84:d7:80:9d:6b:
         4b:71:22:0b:93:ff:97:ec:ba:93:11:ae:a8:56:c4:d2:92:87:
         4d:21:d1:2a:3b:7e:ac:70:12:1e:c2:8d:c8:03:db:4d:15:cb:
         cf:b2:c4:af:79:05:bb:44:5d:49:2f:1b:95:32:f9:ef:1e:e8:
         64:b4:f7:81:e4:5d:53:95:c6:86:e6:a8:87:38:06:41:39:91:
         c7:f1:9a:4f:12:23:ae:75:e2:1d:51:16:1c:36:97:91:d4:97:
         62:7a:90:0a:b5:a0:77:90:a8:af:6f:a6:21:04:9a:a6:48:26:
         1b:7e:79:39:d3:a2:f4:54:2c:23:f5:71:d2:2e:4e:42:8e:b6:
         95:6e:20:83:da:79:c2:11:2a:23:d3:bc:04:0b:41:9c:b0:a7:
         a8:6b:16:9d:9e:71:37:2b:4c:d0:cc:53:69:63:7a:0b:24:86:
         72:a9:a9:fb
-----BEGIN CERTIFICATE-----
MIIDiTCCAnECAQIwDQYJKoZIhvcNAQELBQAwgbUxCzAJBgNVBAYTAlVTMQswCQYD
VQQIDAJNTzEUMBIGA1UEBwwLU2FpbnQgTG91aXMxLDAqBgNVBAoMI09iamVjdCBD
b21wdXRpbmcgKFRlc3QgSWRlbnRpdHkgQ0EpMSwwKgYDVQQDDCNPYmplY3QgQ29t
cHV0aW5nIChUZXN0IElkZW50aXR5IENBKTEnMCUGCSqGSIb3DQEJARYYaW5mb0Bv
YmplY3Rjb21wdXRpbmcuY29tMB4XDTIzMDcyNTA2MzMzM1oXDTMzMDcyMjA2MzMz
M1owXzESMBAGA1UEAwwJVGFob2UgSm9lMScwJQYDVQQKDB5TdXBlciBTd2Fua3kg
U2tpIGFuZCBTbm93IFNob3AxEzARBgNVBAgMCkNhbGlmb3JuaWExCzAJBgNVBAYT
AlVTMIIBIjANBgkqhkiG9w0BAQEFAAOCAQ8AMIIBCgKCAQEA8lgp9SB4kJ+xH7Sr
RoFzoyN83qKrFYsoJaucsf8wfyhc1m/mEtDGep21rmGAZL+olH/w/u/i9xPxs7sy
Q/9sDxjk+V6cjKwNdhzFt4frerDsNAXOPBntAHQOUDYSmf1kRQ9oflxMrLFbe0Hp
hV4mHtdq1GxLhlVmptATsSl5IpYDHJnCzOc+S4de2v2wLHww8t46x9Zsl0q0j55h
SzHAVi8EzuJ+3lKCqEgCPUqkXhfNIFtuSuyIOay9riDNFrPMOQkLoY+7dhRCsz1K
s11D9t57bwiVuVQXDV4VcVVUDObbTmbGyHPIgvPbTLo3W1ixZObrQ3KT4Q/0eWRO
RY9EcwIDAQABMA0GCSqGSIb3DQEBCwUAA4IBAQBoAS5Z1vyvvsRxKVmbuRqpVi4Y
A12zliSVG3jfSG5CVBvbEtARQ7rt+5/SeuOoK6Um7jroe81ejZsDb9DGIgODlhgn
vLJcVSoNUcd4PuUWJRW/IWNOhNeAnWtLcSILk/+X7LqTEa6oVsTSkodNIdEqO36s
cBIewo3IA9tNFcvPssSveQW7RF1JLxuVMvnvHuhktPeB5F1TlcaG5qiHOAZBOZHH
8ZpPEiOudeIdURYcNpeR1JdiepAKtaB3kKivb6YhBJqmSCYbfnk506L0VCwj9XHS
Lk5CjraVbiCD2nnCESoj07wEC0GcsKeoaxadnnE3K0zQzFNpY3oLJIZyqan7
-----END CERTIFICATE-----
