Certificate:
    Data:
        Version: 1 (0x0)
        Serial Number: 2 (0x2)
    Signature Algorithm: sha256WithRSAEncryption
        Issuer: C=US, ST=MO, L=Saint Louis, O=Object Computing (Test Identity CA), CN=Object Computing (Test Identity CA)/emailAddress=info@objectcomputing.com
        Validity
            Not Before: Jun 13 04:14:20 2018 GMT
            Not After : Jun 10 04:14:20 2028 GMT
        Subject: C=US, ST=California, O=Super Swanky Ski and Snow Shop, CN=Tahoe Joe
        Subject Public Key Info:
            Public Key Algorithm: rsaEncryption
                Public-Key: (2048 bit)
                Modulus:
                    00:c3:aa:79:02:c0:b7:01:12:a1:82:af:df:54:be:
                    9c:83:e1:5e:dc:6a:83:52:9f:13:2c:be:1f:bd:65:
                    5a:c9:4d:3b:77:9b:de:a9:26:18:c0:a3:6b:cc:9d:
                    5a:76:5a:af:5f:f2:fa:e8:87:7e:50:2d:02:ce:07:
                    ac:58:70:47:97:89:1c:2c:69:fc:1c:ea:71:7a:af:
                    d5:52:24:dd:a1:1d:05:60:98:e5:ad:7d:3e:08:10:
                    21:f9:9b:4e:7f:09:dd:eb:4c:8c:cf:83:45:5f:e0:
                    6d:9e:d0:d7:97:18:2a:39:fd:7f:0c:5b:1d:31:fa:
                    fb:5e:cc:12:77:5c:7c:88:b6:fa:ba:82:d2:c6:f2:
                    26:dc:5b:64:ac:e4:c7:a4:23:e2:06:a8:c0:c3:64:
                    58:2a:8d:72:7f:58:59:19:10:76:5c:b0:71:27:b4:
                    56:25:8d:7f:f1:27:73:ee:3c:ee:ba:c1:b9:54:48:
                    82:e0:9f:db:1a:0e:90:19:56:c3:40:ce:ef:7a:d0:
                    b3:8c:6f:fa:60:ba:42:fb:37:58:05:1e:78:06:e5:
                    8b:eb:10:d8:96:b7:c2:b7:af:00:33:0a:e8:ea:d3:
                    3c:94:77:05:66:a0:de:f5:2b:8d:25:62:00:22:b0:
                    b5:e7:f9:19:f5:23:1c:5c:6c:5c:ff:b6:11:2e:18:
                    c6:0f
                Exponent: 65537 (0x10001)
    Signature Algorithm: sha256WithRSAEncryption
         25:c7:7e:da:92:ca:65:f3:46:d4:1d:1e:66:b2:b7:fd:1d:30:
         c3:a5:78:db:6d:f1:de:5d:d7:f6:ac:ca:19:0e:97:a4:03:dc:
         3f:a4:5b:40:86:5a:8c:e9:1b:29:3b:cd:9f:db:53:c9:1c:e6:
         e3:14:a4:c1:b3:74:d3:1c:ff:ab:91:0c:a1:93:29:91:ad:f5:
         b8:4a:fb:cf:2d:67:8b:40:6a:4f:e3:19:08:27:a3:40:03:9b:
         94:e9:39:05:fd:ca:ae:80:9f:9c:63:6d:56:8c:2f:d7:69:19:
         17:b6:6d:d0:31:2c:68:4a:d0:bc:ee:01:03:3d:f1:7d:eb:29:
         24:ac:a1:d7:f8:e4:27:af:24:4f:36:95:a5:77:d1:02:91:ab:
         70:0f:ef:2b:f4:d3:1d:56:d7:ac:9a:f4:e3:64:ec:37:7e:ae:
         10:0a:a4:c4:1b:71:3a:5e:7a:05:81:9b:39:58:41:07:46:2d:
         17:3d:02:e9:7a:32:b3:a9:e7:f0:a1:73:e4:dc:00:54:8e:06:
         4d:6d:12:b1:e5:eb:c0:83:2a:94:9b:34:98:b3:fa:99:54:2a:
         32:14:45:3e:aa:6d:71:8c:03:37:ca:e3:00:e8:c6:0e:95:27:
         a7:55:a5:ec:33:b6:a3:6f:fa:43:09:a8:b4:ec:b3:07:08:99:
         bb:97:75:c2
-----BEGIN CERTIFICATE-----
MIIDiTCCAnECAQIwDQYJKoZIhvcNAQELBQAwgbUxCzAJBgNVBAYTAlVTMQswCQYD
VQQIDAJNTzEUMBIGA1UEBwwLU2FpbnQgTG91aXMxLDAqBgNVBAoMI09iamVjdCBD
b21wdXRpbmcgKFRlc3QgSWRlbnRpdHkgQ0EpMSwwKgYDVQQDDCNPYmplY3QgQ29t
cHV0aW5nIChUZXN0IElkZW50aXR5IENBKTEnMCUGCSqGSIb3DQEJARYYaW5mb0Bv
YmplY3Rjb21wdXRpbmcuY29tMB4XDTE4MDYxMzA0MTQyMFoXDTI4MDYxMDA0MTQy
MFowXzELMAkGA1UEBhMCVVMxEzARBgNVBAgMCkNhbGlmb3JuaWExJzAlBgNVBAoM
HlN1cGVyIFN3YW5reSBTa2kgYW5kIFNub3cgU2hvcDESMBAGA1UEAwwJVGFob2Ug
Sm9lMIIBIjANBgkqhkiG9w0BAQEFAAOCAQ8AMIIBCgKCAQEAw6p5AsC3ARKhgq/f
VL6cg+Fe3GqDUp8TLL4fvWVayU07d5veqSYYwKNrzJ1adlqvX/L66Id+UC0Czges
WHBHl4kcLGn8HOpxeq/VUiTdoR0FYJjlrX0+CBAh+ZtOfwnd60yMz4NFX+BtntDX
lxgqOf1/DFsdMfr7XswSd1x8iLb6uoLSxvIm3FtkrOTHpCPiBqjAw2RYKo1yf1hZ
GRB2XLBxJ7RWJY1/8Sdz7jzuusG5VEiC4J/bGg6QGVbDQM7vetCzjG/6YLpC+zdY
BR54BuWL6xDYlrfCt68AMwro6tM8lHcFZqDe9SuNJWIAIrC15/kZ9SMcXGxc/7YR
LhjGDwIDAQABMA0GCSqGSIb3DQEBCwUAA4IBAQAlx37akspl80bUHR5msrf9HTDD
pXjbbfHeXdf2rMoZDpekA9w/pFtAhlqM6RspO82f21PJHObjFKTBs3TTHP+rkQyh
kymRrfW4SvvPLWeLQGpP4xkIJ6NAA5uU6TkF/cqugJ+cY21WjC/XaRkXtm3QMSxo
StC87gEDPfF96ykkrKHX+OQnryRPNpWld9ECkatwD+8r9NMdVtesmvTjZOw3fq4Q
CqTEG3E6XnoFgZs5WEEHRi0XPQLpejKzqefwoXPk3ABUjgZNbRKx5evAgyqUmzSY
s/qZVCoyFEU+qm1xjAM3yuMA6MYOlSenVaXsM7ajb/pDCai07LMHCJm7l3XC
-----END CERTIFICATE-----
