Certificate:
    Data:
        Version: 1 (0x0)
        Serial Number: 4 (0x4)
    Signature Algorithm: sha256WithRSAEncryption
        Issuer: C=US, ST=MO, L=Saint Louis, O=Object Computing (Test Identity CA), CN=Object Computing (Test Identity CA)/emailAddress=info@objectcomputing.com
        Validity
            Not Before: Jul 25 06:39:03 2023 GMT
            Not After : Jul 22 06:39:03 2033 GMT
        Subject: emailAddress=fuppy@mail.fuphouse.ca, CN=Fuppy Fuppington III, OU=The Upper Room, O=House of Fuppy, ST=Nunavut, C=CA
        Subject Public Key Info:
            Public Key Algorithm: id-ecPublicKey
                Public-Key: (256 bit)
                pub: 
                    04:eb:57:aa:73:25:92:7a:b8:8f:61:b0:bb:89:c1:
                    c8:05:97:4b:a0:c6:21:62:8f:07:79:ec:f6:04:35:
                    2b:46:85:49:cc:9f:6b:91:2b:79:d1:e4:0b:79:db:
                    d4:cb:f0:ed:9f:e6:4d:8e:31:c5:eb:05:1a:9e:70:
                    73:52:d8:bf:4a
                ASN1 OID: prime256v1
                NIST CURVE: P-256
    Signature Algorithm: sha256WithRSAEncryption
         2f:9e:9e:bd:55:72:58:63:20:fc:d1:52:34:a7:01:0f:7f:08:
         36:fe:61:72:d9:9f:c7:47:b3:fa:11:1a:ff:c5:6a:f6:8d:63:
         43:d2:f5:66:fc:80:69:6f:82:0c:7e:b6:3c:2a:76:39:e4:74:
         ac:b6:fa:7c:e0:15:66:cc:92:5a:ec:c1:03:8e:b7:29:ec:b4:
         2a:0c:aa:6e:b1:d9:bc:b3:dd:ae:a6:4f:f4:88:d3:4c:f5:e6:
         99:b3:f8:ea:73:3f:ac:80:40:ac:60:e4:83:37:4e:e9:97:f4:
         6b:00:ce:00:72:ec:1f:b7:64:8b:54:52:ca:ce:0a:3b:6b:2c:
         4d:81:26:1e:fb:58:00:89:2d:0d:9e:79:0d:7d:a5:d9:38:a8:
         0a:b9:f9:6e:9a:7e:ed:5d:60:38:43:32:95:0e:02:49:59:4d:
         0a:e2:9e:b7:9b:cf:00:c0:32:4d:87:25:85:43:60:23:ee:a4:
         39:a6:a8:4f:11:03:8c:0a:13:81:28:d8:91:dd:b8:8b:d6:23:
         86:16:b2:c4:41:b6:91:3f:ba:da:81:a7:46:90:a1:9d:c7:35:
         42:b1:42:ff:2c:2f:7c:b0:16:1f:41:65:f6:48:46:b3:10:92:
         45:45:7c:40:b6:ec:e3:ac:17:0b:07:d9:37:7f:9d:2a:f7:92:
         38:98:21:11
-----BEGIN CERTIFICATE-----
MIIC9zCCAd8CAQQwDQYJKoZIhvcNAQELBQAwgbUxCzAJBgNVBAYTAlVTMQswCQYD
VQQIDAJNTzEUMBIGA1UEBwwLU2FpbnQgTG91aXMxLDAqBgNVBAoMI09iamVjdCBD
b21wdXRpbmcgKFRlc3QgSWRlbnRpdHkgQ0EpMSwwKgYDVQQDDCNPYmplY3QgQ29t
cHV0aW5nIChUZXN0IElkZW50aXR5IENBKTEnMCUGCSqGSIb3DQEJARYYaW5mb0Bv
YmplY3Rjb21wdXRpbmcuY29tMB4XDTIzMDcyNTA2MzkwM1oXDTMzMDcyMjA2Mzkw
M1owgZcxJTAjBgkqhkiG9w0BCQEWFmZ1cHB5QG1haWwuZnVwaG91c2UuY2ExHTAb
BgNVBAMMFEZ1cHB5IEZ1cHBpbmd0b24gSUlJMRcwFQYDVQQLDA5UaGUgVXBwZXIg
Um9vbTEXMBUGA1UECgwOSG91c2Ugb2YgRnVwcHkxEDAOBgNVBAgMB051bmF2dXQx
CzAJBgNVBAYTAkNBMFkwEwYHKoZIzj0CAQYIKoZIzj0DAQcDQgAE61eqcyWSeriP
YbC7icHIBZdLoMYhYo8Heez2BDUrRoVJzJ9rkSt50eQLedvUy/Dtn+ZNjjHF6wUa
nnBzUti/SjANBgkqhkiG9w0BAQsFAAOCAQEAL56evVVyWGMg/NFSNKcBD38INv5h
ctmfx0ez+hEa/8Vq9o1jQ9L1ZvyAaW+CDH62PCp2OeR0rLb6fOAVZsySWuzBA463
Key0KgyqbrHZvLPdrqZP9IjTTPXmmbP46nM/rIBArGDkgzdO6Zf0awDOAHLsH7dk
i1RSys4KO2ssTYEmHvtYAIktDZ55DX2l2TioCrn5bpp+7V1gOEMylQ4CSVlNCuKe
t5vPAMAyTYclhUNgI+6kOaaoTxEDjAoTgSjYkd24i9YjhhayxEG2kT+62oGnRpCh
ncc1QrFC/ywvfLAWH0Fl9khGsxCSRUV8QLbs46wXCwfZN3+dKveSOJghEQ==
-----END CERTIFICATE-----
