Certificate:
    Data:
        Version: 1 (0x0)
        Serial Number: 4 (0x4)
    Signature Algorithm: sha256WithRSAEncryption
        Issuer: C=US, ST=MO, L=Saint Louis, O=Object Computing (Test Identity CA), CN=Object Computing (Test Identity CA)/emailAddress=info@objectcomputing.com
        Validity
            Not Before: Jun 13 04:18:44 2018 GMT
            Not After : Jun 10 04:18:44 2028 GMT
        Subject: C=CA, ST=Nunavut, O=House of Fuppy, OU=The Upper Room, CN=Fuppy Fuppington III/emailAddress=fuppy@mail.fuphouse.ca
        Subject Public Key Info:
            Public Key Algorithm: id-ecPublicKey
                Public-Key: (256 bit)
                pub:
                    04:0e:ad:b7:84:4a:98:f2:49:90:d9:47:60:77:e6:
                    a5:8c:82:c2:d2:cc:c6:18:2e:03:31:28:72:f1:54:
                    42:5b:6d:fc:58:d4:0c:15:48:47:3d:8e:9e:5d:c3:
                    32:c0:fc:8c:80:2c:a6:90:8d:fc:53:89:71:cc:b3:
                    a8:e7:2a:7e:b7
                ASN1 OID: prime256v1
                NIST CURVE: P-256
    Signature Algorithm: sha256WithRSAEncryption
         a4:09:51:41:74:4f:23:c7:58:d1:5c:b4:d6:f7:7c:77:75:0e:
         0e:f9:0c:0e:9f:70:2d:19:ce:ff:29:41:c0:a6:b1:61:8c:1e:
         f8:cf:c2:15:e4:5a:c9:d0:19:fd:6f:c7:cf:88:8d:16:75:e4:
         c8:7c:8a:5b:1d:f7:db:5b:5f:a2:d0:b1:37:16:4f:7a:fe:2e:
         70:56:d5:72:80:15:92:31:ca:f2:1d:bd:6e:d2:b9:d5:8c:ca:
         cf:80:2b:fc:87:91:6e:8f:74:ae:95:fe:63:e1:10:ac:6a:49:
         15:10:1e:71:b9:cf:99:1e:d5:8a:2d:17:57:e0:3f:a4:01:b5:
         c2:13:92:28:87:24:2e:c7:89:bb:a6:5b:5b:7e:5a:a5:2c:01:
         e9:24:3a:f4:46:03:1c:93:23:88:b6:0d:08:12:34:47:86:d5:
         2b:60:ac:82:cd:6d:a3:96:6a:ff:14:4a:4a:95:24:91:13:3d:
         53:51:8e:1e:ef:3f:72:8a:21:74:82:a4:b4:fe:c2:00:33:df:
         92:7b:52:cf:63:f2:25:07:13:6c:71:03:dc:67:28:3c:da:a3:
         f5:d0:24:64:67:b0:14:e0:ac:c7:d2:d7:7f:2d:16:0e:34:2b:
         7b:f4:26:f9:50:83:b9:d4:c0:81:6b:5d:bd:eb:65:80:1e:7b:
         bb:6b:85:06
-----BEGIN CERTIFICATE-----
MIIC9zCCAd8CAQQwDQYJKoZIhvcNAQELBQAwgbUxCzAJBgNVBAYTAlVTMQswCQYD
VQQIDAJNTzEUMBIGA1UEBwwLU2FpbnQgTG91aXMxLDAqBgNVBAoMI09iamVjdCBD
b21wdXRpbmcgKFRlc3QgSWRlbnRpdHkgQ0EpMSwwKgYDVQQDDCNPYmplY3QgQ29t
cHV0aW5nIChUZXN0IElkZW50aXR5IENBKTEnMCUGCSqGSIb3DQEJARYYaW5mb0Bv
YmplY3Rjb21wdXRpbmcuY29tMB4XDTE4MDYxMzA0MTg0NFoXDTI4MDYxMDA0MTg0
NFowgZcxCzAJBgNVBAYTAkNBMRAwDgYDVQQIDAdOdW5hdnV0MRcwFQYDVQQKDA5I
b3VzZSBvZiBGdXBweTEXMBUGA1UECwwOVGhlIFVwcGVyIFJvb20xHTAbBgNVBAMM
FEZ1cHB5IEZ1cHBpbmd0b24gSUlJMSUwIwYJKoZIhvcNAQkBFhZmdXBweUBtYWls
LmZ1cGhvdXNlLmNhMFkwEwYHKoZIzj0CAQYIKoZIzj0DAQcDQgAEDq23hEqY8kmQ
2Udgd+aljILC0szGGC4DMShy8VRCW238WNQMFUhHPY6eXcMywPyMgCymkI38U4lx
zLOo5yp+tzANBgkqhkiG9w0BAQsFAAOCAQEApAlRQXRPI8dY0Vy01vd8d3UODvkM
Dp9wLRnO/ylBwKaxYYwe+M/CFeRaydAZ/W/Hz4iNFnXkyHyKWx3321tfotCxNxZP
ev4ucFbVcoAVkjHK8h29btK51YzKz4Ar/IeRbo90rpX+Y+EQrGpJFRAecbnPmR7V
ii0XV+A/pAG1whOSKIckLseJu6ZbW35apSwB6SQ69EYDHJMjiLYNCBI0R4bVK2Cs
gs1to5Zq/xRKSpUkkRM9U1GOHu8/coohdIKktP7CADPfkntSz2PyJQcTbHED3Gco
PNqj9dAkZGewFOCsx9LXfy0WDjQre/Qm+VCDudTAgWtdvetlgB57u2uFBg==
-----END CERTIFICATE-----
