Certificate:
    Data:
        Version: 1 (0x0)
        Serial Number: 3 (0x3)
    Signature Algorithm: sha256WithRSAEncryption
        Issuer: C=US, ST=MO, L=Saint Louis, O=Object Computing (Test Identity CA), CN=Object Computing (Test Identity CA)/emailAddress=info@objectcomputing.com
        Validity
            Not Before: Jul 25 06:36:13 2023 GMT
            Not After : Jul 22 06:36:13 2033 GMT
        Subject: emailAddress=bob@magicalwidgets.com, CN=Roberto Gonzales, O=Bob's Magical Widget Factory, ST=JQ, C=GB
        Subject Public Key Info:
            Public Key Algorithm: id-ecPublicKey
                Public-Key: (256 bit)
                pub: 
                    04:c7:64:22:a1:d3:51:0e:72:38:7d:20:f6:f7:c0:
                    e1:83:31:be:eb:af:a4:08:48:a5:6f:6d:45:1b:20:
                    71:a5:85:af:82:b0:38:dc:b9:45:46:37:04:8c:ca:
                    b7:c8:f0:59:8d:90:73:aa:29:41:4c:cf:c6:be:2f:
                    b8:c6:b7:ad:48
                ASN1 OID: prime256v1
                NIST CURVE: P-256
    Signature Algorithm: sha256WithRSAEncryption
         1a:97:af:87:50:58:95:b3:ee:fa:5a:c6:69:db:b9:a4:e9:c6:
         1e:84:f2:12:d9:a6:7f:56:83:7f:08:81:03:df:35:20:55:e0:
         d9:b1:27:ca:ce:ad:e4:f8:52:a6:6c:45:b5:61:58:c8:e3:af:
         eb:93:17:f8:3f:8d:9e:b9:68:4a:71:58:21:3d:1f:81:aa:df:
         47:c7:7e:6b:4f:73:9b:c8:2f:68:5a:3c:76:35:db:17:22:66:
         a7:d2:a7:d5:b0:f1:f5:9d:e6:31:a1:1c:8e:8d:f7:e5:8f:e1:
         9a:e1:75:21:1f:6e:99:7a:86:66:d8:2c:9b:b7:65:0a:75:0c:
         b5:ab:5d:87:9c:48:7c:ec:fd:dc:15:bb:9a:01:65:2c:83:d7:
         f4:80:87:00:21:9e:f8:85:71:4d:10:01:88:4a:51:3b:98:a6:
         a9:20:1b:53:06:14:f1:55:88:78:86:af:d3:4a:4b:82:72:9b:
         d3:88:ab:9f:75:a0:52:79:9c:fc:11:98:8f:b7:b2:d8:e5:70:
         9e:b4:18:b5:ea:ab:bc:b0:2f:b8:12:76:a8:1c:44:e2:cf:4d:
         43:2d:e9:55:e5:11:2a:ab:10:9b:e9:13:a5:98:df:61:07:11:
         3b:54:d6:93:6b:81:d0:86:3e:40:65:fd:17:ba:9c:74:f7:cd:
         56:cb:e4:a1
-----BEGIN CERTIFICATE-----
MIIC4zCCAcsCAQMwDQYJKoZIhvcNAQELBQAwgbUxCzAJBgNVBAYTAlVTMQswCQYD
VQQIDAJNTzEUMBIGA1UEBwwLU2FpbnQgTG91aXMxLDAqBgNVBAoMI09iamVjdCBD
b21wdXRpbmcgKFRlc3QgSWRlbnRpdHkgQ0EpMSwwKgYDVQQDDCNPYmplY3QgQ29t
cHV0aW5nIChUZXN0IElkZW50aXR5IENBKTEnMCUGCSqGSIb3DQEJARYYaW5mb0Bv
YmplY3Rjb21wdXRpbmcuY29tMB4XDTIzMDcyNTA2MzYxM1oXDTMzMDcyMjA2MzYx
M1owgYMxJTAjBgkqhkiG9w0BCQEWFmJvYkBtYWdpY2Fsd2lkZ2V0cy5jb20xGTAX
BgNVBAMMEFJvYmVydG8gR29uemFsZXMxJTAjBgNVBAoMHEJvYidzIE1hZ2ljYWwg
V2lkZ2V0IEZhY3RvcnkxCzAJBgNVBAgMAkpRMQswCQYDVQQGEwJHQjBZMBMGByqG
SM49AgEGCCqGSM49AwEHA0IABMdkIqHTUQ5yOH0g9vfA4YMxvuuvpAhIpW9tRRsg
caWFr4KwONy5RUY3BIzKt8jwWY2Qc6opQUzPxr4vuMa3rUgwDQYJKoZIhvcNAQEL
BQADggEBABqXr4dQWJWz7vpaxmnbuaTpxh6E8hLZpn9Wg38IgQPfNSBV4NmxJ8rO
reT4UqZsRbVhWMjjr+uTF/g/jZ65aEpxWCE9H4Gq30fHfmtPc5vIL2haPHY12xci
ZqfSp9Ww8fWd5jGhHI6N9+WP4ZrhdSEfbpl6hmbYLJu3ZQp1DLWrXYecSHzs/dwV
u5oBZSyD1/SAhwAhnviFcU0QAYhKUTuYpqkgG1MGFPFViHiGr9NKS4Jym9OIq591
oFJ5nPwRmI+3stjlcJ60GLXqq7ywL7gSdqgcROLPTUMt6VXlESqrEJvpE6WY32EH
ETtU1pNrgdCGPkBl/Re6nHT3zVbL5KE=
-----END CERTIFICATE-----
