Certificate:
    Data:
        Version: 1 (0x0)
        Serial Number: 1 (0x1)
    Signature Algorithm: sha256WithRSAEncryption
        Issuer: C=US, ST=MO, L=Saint Louis, O=Object Computing (Test Identity CA), CN=Object Computing (Test Identity CA)/emailAddress=info@objectcomputing.com
        Validity
            Not Before: Jul 25 06:31:15 2023 GMT
            Not After : Jul 22 06:31:15 2033 GMT
        Subject: CN=Ozzie Ozmann, O=Internet Widgits Pty Ltd, ST=Some-State, C=AU
        Subject Public Key Info:
            Public Key Algorithm: rsaEncryption
                Public-Key: (2048 bit)
                Modulus:
                    00:d1:98:75:f6:e3:dc:43:f3:d6:60:e5:17:98:be:
                    40:82:e0:4f:f8:1a:50:b9:02:8b:b2:07:5e:8a:0c:
                    10:cd:7b:ab:40:87:1d:2b:82:f3:d2:b2:90:87:46:
                    5b:0b:26:5d:50:fd:70:4f:1d:14:94:ef:91:a2:c2:
                    e1:3c:11:25:8e:e7:ac:c9:fd:48:76:2b:3e:18:91:
                    72:88:ee:b5:94:ae:6d:68:d8:f4:9f:02:10:70:82:
                    57:cd:f8:10:7c:b1:be:c0:4d:e0:b1:a8:a8:f6:72:
                    79:38:4d:8b:05:16:60:f5:5e:bf:7d:36:81:42:2a:
                    ef:b0:bf:cd:b1:0c:24:7f:d3:6f:40:08:64:fa:71:
                    1a:4b:1a:24:db:3d:f9:a5:ef:59:09:fc:b6:27:e4:
                    2c:f5:28:08:62:b3:9e:43:c7:98:b6:8d:76:52:fb:
                    78:7a:e2:cd:ce:b4:6b:ed:08:68:98:8b:94:04:b9:
                    80:6e:24:a3:e7:61:2c:ef:c1:ea:67:64:1a:fb:55:
                    52:c0:f9:ce:b4:3a:d4:c8:db:71:20:5d:fa:f5:61:
                    f4:4e:26:8e:7c:1b:ef:d6:d7:ce:1b:7f:9b:99:0a:
                    cf:e2:93:19:c8:71:df:6f:0d:12:d3:cc:83:0f:10:
                    b3:4d:85:c2:81:b2:71:aa:0e:ff:7e:c6:bd:07:c3:
                    59:bb
                Exponent: 65537 (0x10001)
    Signature Algorithm: sha256WithRSAEncryption
         02:79:f8:07:c2:27:9a:be:a2:a6:ae:79:26:f9:2e:56:34:79:
         57:48:df:5e:60:b4:2e:98:c7:ed:b6:6e:ba:ec:ae:53:c2:54:
         0c:b8:a2:8e:fb:08:27:4b:70:a0:4c:18:b8:dc:2b:18:8a:95:
         70:a6:c1:0c:a6:c2:1c:75:f1:dc:e1:e5:d7:6c:f4:5c:be:37:
         b5:54:8a:62:46:57:cb:44:27:a2:65:40:47:6e:17:e4:4b:10:
         08:fa:6c:84:be:a9:59:a6:69:6f:55:4c:e6:9e:30:f7:a4:3c:
         c7:70:18:ec:94:cf:c9:a2:58:f6:60:a5:1b:3c:2a:bb:f0:85:
         7e:07:eb:bf:f0:0e:ea:e0:7f:d0:62:c0:c2:0b:e1:df:ca:bd:
         49:51:53:1f:bd:68:8d:8a:d9:2a:6a:d1:31:dd:93:b4:5d:60:
         86:40:40:1b:02:34:c1:d7:8a:85:dc:58:50:33:1a:5f:69:8f:
         f3:73:87:0a:88:2f:df:8e:3f:56:34:81:96:ec:3e:ec:24:d8:
         93:f1:62:a4:8c:66:63:34:7f:0d:8c:c2:39:ab:35:29:7c:b5:
         f1:4f:5d:b3:33:12:5e:55:88:55:0b:b5:ba:52:fc:89:01:e4:
         09:53:b9:3f:7d:ac:52:e0:a9:63:0b:da:34:7b:db:4e:1e:7b:
         8a:10:cd:e4
-----BEGIN CERTIFICATE-----
MIIDhjCCAm4CAQEwDQYJKoZIhvcNAQELBQAwgbUxCzAJBgNVBAYTAlVTMQswCQYD
VQQIDAJNTzEUMBIGA1UEBwwLU2FpbnQgTG91aXMxLDAqBgNVBAoMI09iamVjdCBD
b21wdXRpbmcgKFRlc3QgSWRlbnRpdHkgQ0EpMSwwKgYDVQQDDCNPYmplY3QgQ29t
cHV0aW5nIChUZXN0IElkZW50aXR5IENBKTEnMCUGCSqGSIb3DQEJARYYaW5mb0Bv
YmplY3Rjb21wdXRpbmcuY29tMB4XDTIzMDcyNTA2MzExNVoXDTMzMDcyMjA2MzEx
NVowXDEVMBMGA1UEAwwMT3p6aWUgT3ptYW5uMSEwHwYDVQQKDBhJbnRlcm5ldCBX
aWRnaXRzIFB0eSBMdGQxEzARBgNVBAgMClNvbWUtU3RhdGUxCzAJBgNVBAYTAkFV
MIIBIjANBgkqhkiG9w0BAQEFAAOCAQ8AMIIBCgKCAQEA0Zh19uPcQ/PWYOUXmL5A
guBP+BpQuQKLsgdeigwQzXurQIcdK4Lz0rKQh0ZbCyZdUP1wTx0UlO+RosLhPBEl
juesyf1Idis+GJFyiO61lK5taNj0nwIQcIJXzfgQfLG+wE3gsaio9nJ5OE2LBRZg
9V6/fTaBQirvsL/NsQwkf9NvQAhk+nEaSxok2z35pe9ZCfy2J+Qs9SgIYrOeQ8eY
to12Uvt4euLNzrRr7QhomIuUBLmAbiSj52Es78HqZ2Qa+1VSwPnOtDrUyNtxIF36
9WH0TiaOfBvv1tfOG3+bmQrP4pMZyHHfbw0S08yDDxCzTYXCgbJxqg7/fsa9B8NZ
uwIDAQABMA0GCSqGSIb3DQEBCwUAA4IBAQACefgHwieavqKmrnkm+S5WNHlXSN9e
YLQumMfttm667K5TwlQMuKKO+wgnS3CgTBi43CsYipVwpsEMpsIcdfHc4eXXbPRc
vje1VIpiRlfLRCeiZUBHbhfkSxAI+myEvqlZpmlvVUzmnjD3pDzHcBjslM/Jolj2
YKUbPCq78IV+B+u/8A7q4H/QYsDCC+Hfyr1JUVMfvWiNitkqatEx3ZO0XWCGQEAb
AjTB14qF3FhQMxpfaY/zc4cKiC/fjj9WNIGW7D7sJNiT8WKkjGZjNH8NjMI5qzUp
fLXxT12zMxJeVYhVC7W6UvyJAeQJU7k/faxS4KljC9o0e9tOHnuKEM3k
-----END CERTIFICATE-----
