Certificate:
    Data:
        Version: 1 (0x0)
        Serial Number: 1 (0x1)
    Signature Algorithm: sha256WithRSAEncryption
        Issuer: C=US, ST=MO, L=Saint Louis, O=Object Computing (Test Identity CA), CN=Object Computing (Test Identity CA)/emailAddress=info@objectcomputing.com
        Validity
            Not Before: Jun 13 04:13:16 2018 GMT
            Not After : Jun 10 04:13:16 2028 GMT
        Subject: C=AU, ST=Some-State, O=Internet Widgits Pty Ltd, CN=Ozzie Ozmann
        Subject Public Key Info:
            Public Key Algorithm: rsaEncryption
                Public-Key: (2048 bit)
                Modulus:
                    00:b2:7a:e0:ba:a8:34:a9:3f:e9:86:1c:2c:4f:b2:
                    34:41:fa:8a:dc:67:58:b6:07:63:ce:4d:72:da:a9:
                    0c:be:c0:00:09:2c:14:c6:a1:03:c7:04:2a:de:89:
                    e9:67:6c:0e:48:a7:c2:2b:67:67:02:d8:f8:97:7f:
                    73:03:b3:e4:26:0d:ec:c8:4f:7c:fd:c1:71:58:b0:
                    f3:9e:3b:ed:8b:bd:f1:5e:81:c9:39:9e:ea:fd:5d:
                    9d:eb:f8:d1:16:2c:58:58:72:da:db:e9:d4:27:a8:
                    02:72:f0:bd:67:e2:a4:7f:17:ef:e5:01:f0:e3:fc:
                    ba:58:ac:c6:f9:ff:3e:c2:f4:e1:4f:6c:7f:fb:cd:
                    27:eb:63:2f:4e:9c:86:b4:e5:75:4c:fd:9b:84:4a:
                    a1:82:bc:50:1c:99:2f:dc:de:0a:ae:70:be:9e:28:
                    b2:e1:28:47:5f:2b:70:9c:cf:2d:7a:59:77:20:11:
                    66:b8:62:2b:98:69:f5:38:8f:51:8a:58:e3:4a:dd:
                    a7:29:cf:2f:01:bc:5c:be:78:9f:8e:4d:79:3c:8c:
                    11:95:55:e4:d6:35:4d:bb:51:66:5a:54:f1:00:c7:
                    79:56:e9:b2:7e:39:99:ce:4f:f5:b7:49:fc:c4:30:
                    1e:ac:37:ef:9a:bd:f7:c9:c0:e6:a3:d8:7b:38:19:
                    d6:6d
                Exponent: 65537 (0x10001)
    Signature Algorithm: sha256WithRSAEncryption
         47:f4:27:67:f0:bf:77:c6:6a:de:d2:14:e4:0c:07:aa:d3:c3:
         44:04:89:65:09:fe:c1:a6:b7:8e:83:bb:43:a1:3e:7d:02:aa:
         26:04:d1:0f:e5:7f:72:97:f5:85:23:4c:b0:71:3b:0f:a8:a0:
         08:23:24:15:98:54:5f:e1:f3:39:3f:12:f0:9f:72:22:61:e2:
         55:06:19:99:ef:ee:94:97:98:74:3b:1b:63:6e:7a:ed:97:d8:
         1b:d8:fb:b8:10:50:e1:d6:e9:42:52:8c:3d:a7:f1:f9:71:e3:
         64:da:31:ad:a2:01:1c:a1:dc:c9:f5:4d:56:a4:90:e7:79:5a:
         8b:c3:d1:8f:95:28:8e:68:6d:b6:91:0f:33:fb:70:61:c6:0c:
         79:cc:95:da:f6:0c:73:57:03:d0:d4:37:d3:60:5d:b4:d3:85:
         18:78:e9:3e:d4:3b:ae:f3:c7:2b:46:9d:34:82:17:ac:a0:52:
         b1:e4:e5:11:8d:3a:c8:98:8a:39:71:01:1a:cd:54:3b:b1:7d:
         c1:02:48:b7:7a:0c:29:68:a5:cd:89:64:3b:54:8b:99:34:5a:
         81:61:f3:51:a6:2b:d6:42:17:1d:1b:b8:34:31:32:bf:00:5e:
         9d:75:a7:7a:19:d6:a4:9d:89:66:06:19:58:a5:27:7f:2b:d0:
         d8:22:43:31
-----BEGIN CERTIFICATE-----
MIIDhjCCAm4CAQEwDQYJKoZIhvcNAQELBQAwgbUxCzAJBgNVBAYTAlVTMQswCQYD
VQQIDAJNTzEUMBIGA1UEBwwLU2FpbnQgTG91aXMxLDAqBgNVBAoMI09iamVjdCBD
b21wdXRpbmcgKFRlc3QgSWRlbnRpdHkgQ0EpMSwwKgYDVQQDDCNPYmplY3QgQ29t
cHV0aW5nIChUZXN0IElkZW50aXR5IENBKTEnMCUGCSqGSIb3DQEJARYYaW5mb0Bv
YmplY3Rjb21wdXRpbmcuY29tMB4XDTE4MDYxMzA0MTMxNloXDTI4MDYxMDA0MTMx
NlowXDELMAkGA1UEBhMCQVUxEzARBgNVBAgMClNvbWUtU3RhdGUxITAfBgNVBAoM
GEludGVybmV0IFdpZGdpdHMgUHR5IEx0ZDEVMBMGA1UEAwwMT3p6aWUgT3ptYW5u
MIIBIjANBgkqhkiG9w0BAQEFAAOCAQ8AMIIBCgKCAQEAsnrguqg0qT/phhwsT7I0
QfqK3GdYtgdjzk1y2qkMvsAACSwUxqEDxwQq3onpZ2wOSKfCK2dnAtj4l39zA7Pk
Jg3syE98/cFxWLDznjvti73xXoHJOZ7q/V2d6/jRFixYWHLa2+nUJ6gCcvC9Z+Kk
fxfv5QHw4/y6WKzG+f8+wvThT2x/+80n62MvTpyGtOV1TP2bhEqhgrxQHJkv3N4K
rnC+niiy4ShHXytwnM8tell3IBFmuGIrmGn1OI9RiljjSt2nKc8vAbxcvnifjk15
PIwRlVXk1jVNu1FmWlTxAMd5VumyfjmZzk/1t0n8xDAerDfvmr33ycDmo9h7OBnW
bQIDAQABMA0GCSqGSIb3DQEBCwUAA4IBAQBH9Cdn8L93xmre0hTkDAeq08NEBIll
Cf7BpreOg7tDoT59AqomBNEP5X9yl/WFI0ywcTsPqKAIIyQVmFRf4fM5PxLwn3Ii
YeJVBhmZ7+6Ul5h0Oxtjbnrtl9gb2Pu4EFDh1ulCUow9p/H5ceNk2jGtogEcodzJ
9U1WpJDneVqLw9GPlSiOaG22kQ8z+3Bhxgx5zJXa9gxzVwPQ1DfTYF2004UYeOk+
1Duu88crRp00ghesoFKx5OURjTrImIo5cQEazVQ7sX3BAki3egwpaKXNiWQ7VIuZ
NFqBYfNRpivWQhcdG7g0MTK/AF6ddad6GdaknYlmBhlYpSd/K9DYIkMx
-----END CERTIFICATE-----
