Certificate:
    Data:
        Version: 1 (0x0)
        Serial Number: 3 (0x3)
    Signature Algorithm: sha256WithRSAEncryption
        Issuer: C=US, ST=MO, L=Saint Louis, O=Object Computing (Test Identity CA), CN=Object Computing (Test Iden CA)/emailAddress=info@objectcomputing.com
        Validity
            Not Before: Apr 19 17:47:49 2018 GMT
            Not After : Apr 16 17:47:49 2028 GMT
        Subject: C=AU, ST=Missouri, O=OCI, OU=opendds, CN=fred/emailAddress=lewisdo@objectcomputing.com
        Subject Public Key Info:
            Public Key Algorithm: id-ecPublicKey
                Public-Key: (256 bit)
                pub:
                    04:6b:43:69:bb:b0:18:8e:45:1e:83:c6:02:69:2f:
                    2d:2c:b8:b1:af:5e:e6:1c:78:0c:b2:a4:c2:80:b0:
                    39:c1:aa:bd:77:d9:f2:dd:45:44:db:c9:ca:99:8f:
                    ff:b1:da:d8:97:2a:db:1f:8d:34:6a:29:90:f5:1b:
                    f5:f9:ab:bb:07
                ASN1 OID: prime256v1
                NIST CURVE: P-256
    Signature Algorithm: sha256WithRSAEncryption
         d6:69:2d:2e:f8:cb:2d:ab:2c:90:ff:bc:c0:80:b9:37:45:74:
         e0:6a:2f:4d:a9:77:24:ba:b7:8c:aa:72:e6:6d:48:6f:68:c8:
         80:6a:f7:34:18:5f:f5:56:94:ba:4e:77:94:7e:37:f6:9a:98:
         c0:80:33:ec:4f:e7:04:33:41:1e:74:93:2e:a5:c8:6c:e4:34:
         23:9b:c3:1b:92:99:42:db:e7:af:fb:eb:71:c9:86:46:c2:43:
         b6:36:68:e5:13:a4:a0:36:e8:48:1a:cf:74:d1:b4:5a:e9:11:
         4e:1e:4b:58:8b:95:21:cb:8b:57:e5:bb:f5:29:63:78:5c:e3:
         01:1e:8e:9c:6d:96:d3:00:5a:0c:0b:cf:25:b2:b1:85:84:aa:
         82:21:53:3d:8b:b8:d3:76:38:14:ba:9f:0e:4b:14:55:7a:bb:
         f2:a1:5a:c4:ff:a5:0f:2c:06:72:16:a5:99:bb:96:c5:20:cf:
         ff:20:eb:4a:64:25:62:fe:9b:9c:84:35:7f:aa:7d:bd:17:36:
         6d:17:5a:75:93:93:24:6e:fa:91:14:76:18:39:ab:e1:e1:dd:
         63:b5:9f:d1:cc:2d:4b:b3:b4:69:b4:a9:6c:9c:a7:f3:70:2e:
         18:b5:a5:80:dd:f2:47:a0:ca:89:8a:00:6c:a6:7f:a1:c5:89:
         48:e3:79:e1
-----BEGIN CERTIFICATE-----
MIIC1jCCAb4CAQMwDQYJKoZIhvcNAQELBQAwgbExCzAJBgNVBAYTAlVTMQswCQYD
VQQIDAJNTzEUMBIGA1UEBwwLU2FpbnQgTG91aXMxLDAqBgNVBAoMI09iamVjdCBD
b21wdXRpbmcgKFRlc3QgSWRlbnRpdHkgQ0EpMSgwJgYDVQQDDB9PYmplY3QgQ29t
cHV0aW5nIChUZXN0IElkZW4gQ0EpMScwJQYJKoZIhvcNAQkBFhhpbmZvQG9iamVj
dGNvbXB1dGluZy5jb20wHhcNMTgwNDE5MTc0NzQ5WhcNMjgwNDE2MTc0NzQ5WjB7
MQswCQYDVQQGEwJBVTERMA8GA1UECAwITWlzc291cmkxDDAKBgNVBAoMA09DSTEQ
MA4GA1UECwwHb3BlbmRkczENMAsGA1UEAwwEZnJlZDEqMCgGCSqGSIb3DQEJARYb
bGV3aXNkb0BvYmplY3Rjb21wdXRpbmcuY29tMFkwEwYHKoZIzj0CAQYIKoZIzj0D
AQcDQgAEa0Npu7AYjkUeg8YCaS8tLLixr17mHHgMsqTCgLA5waq9d9ny3UVE28nK
mY//sdrYlyrbH400aimQ9Rv1+au7BzANBgkqhkiG9w0BAQsFAAOCAQEA1mktLvjL
LasskP+8wIC5N0V04GovTal3JLq3jKpy5m1Ib2jIgGr3NBhf9VaUuk53lH439pqY
wIAz7E/nBDNBHnSTLqXIbOQ0I5vDG5KZQtvnr/vrccmGRsJDtjZo5ROkoDboSBrP
dNG0WukRTh5LWIuVIcuLV+W79SljeFzjAR6OnG2W0wBaDAvPJbKxhYSqgiFTPYu4
03Y4FLqfDksUVXq78qFaxP+lDywGchalmbuWxSDP/yDrSmQlYv6bnIQ1f6p9vRc2
bRdadZOTJG76kRR2GDmr4eHdY7Wf0cwtS7O0abSpbJyn83AuGLWlgN3yR6DKiYoA
bKZ/ocWJSON54Q==
-----END CERTIFICATE-----
